Archive member included because of file (symbol)

C:\Users\USER\Desktop\AUTODR~1\TC275\erika\lib\libee.a(ee_tc_cstart.c.o)
                              (__TRICORE_DERIVATE_NAME__)
C:\Users\USER\Desktop\AUTODR~1\TC275\erika\lib\libee.a(ee_tc_system.c.o)
                              C:\Users\USER\Desktop\AUTODR~1\TC275\erika\lib\libee.a(ee_tc_cstart.c.o) (osEE_tc_set_pll_fsource)
C:\Users\USER\Desktop\AUTODR~1\TC275\erika\lib\libee.a(ee_tc_trapvec.c.o)
                              C:\Users\USER\Desktop\AUTODR~1\TC275\erika\lib\libee.a(ee_tc_cstart.c.o) (__TRAPTAB)
C:\Users\USER\Desktop\AUTODR~1\TC275\erika\lib\libee.a(ee_tc_intvec.c.o)
                              C:\Users\USER\Desktop\AUTODR~1\TC275\erika\lib\libee.a(ee_tc_cstart.c.o) (__INTTAB0)
C:\Users\USER\Desktop\AUTODR~1\TC275\erika\lib\libee.a(ee_oo_api_osek.c.o)
                              obj/bsw.c.o (DisableAllInterrupts)
C:\Users\USER\Desktop\AUTODR~1\TC275\erika\lib\libee.a(ee_oo_sched_entry_points.c.o)
                              obj/ee_applcfg.c.o (osEE_idle_hook_wrapper)
C:\Users\USER\Desktop\AUTODR~1\TC275\erika\lib\libee.a(ee_oo_scheduler.c.o)
                              C:\Users\USER\Desktop\AUTODR~1\TC275\erika\lib\libee.a(ee_oo_api_osek.c.o) (osEE_scheduler_core_pop_running)
C:\Users\USER\Desktop\AUTODR~1\TC275\erika\lib\libee.a(ee_oo_kernel.c.o)
                              C:\Users\USER\Desktop\AUTODR~1\TC275\erika\lib\libee.a(ee_oo_api_osek.c.o) (osEE_task_activated)
C:\Users\USER\Desktop\AUTODR~1\TC275\erika\lib\libee.a(ee_oo_sched_partitioned.c.o)
                              C:\Users\USER\Desktop\AUTODR~1\TC275\erika\lib\libee.a(ee_oo_api_osek.c.o) (osEE_scheduler_task_activated)
C:\Users\USER\Desktop\AUTODR~1\TC275\erika\lib\libee.a(ee_oo_counter.c.o)
                              C:\Users\USER\Desktop\AUTODR~1\TC275\erika\lib\libee.a(ee_oo_api_osek.c.o) (osEE_counter_increment)
C:\Users\USER\Desktop\AUTODR~1\TC275\erika\lib\libee.a(ee_oo_alarm.c.o)
                              C:\Users\USER\Desktop\AUTODR~1\TC275\erika\lib\libee.a(ee_oo_api_osek.c.o) (osEE_alarm_set_rel)
C:\Users\USER\Desktop\AUTODR~1\TC275\erika\lib\libee.a(ee_std_change_context.c.o)
                              C:\Users\USER\Desktop\AUTODR~1\TC275\erika\lib\libee.a(ee_oo_api_osek.c.o) (osEE_change_context_from_running)
C:\Users\USER\Desktop\AUTODR~1\TC275\erika\lib\libee.a(ee_tc_hal.c.o)
                              C:\Users\USER\Desktop\AUTODR~1\TC275\erika\lib\libee.a(ee_oo_api_osek.c.o) (osEE_cpu_startos)
C:\Users\USER\Desktop\AUTODR~1\TC275\erika\lib\libee.a(ee_tc_ctx.c.o)
                              C:\Users\USER\Desktop\AUTODR~1\TC275\erika\lib\libee.a(ee_std_change_context.c.o) (osEE_hal_ready2stacked)
c:/hightec/toolchains/tricore/v4.9.3.0-infineon-1.0/bin/../lib/gcc/tricore/4.9.4/tc161\libgcc.a(_lshrdi3.o)
                              obj/illd/src/IfxStm.c.o (__lshrdi3)
c:/hightec/toolchains/tricore/v4.9.3.0-infineon-1.0/bin/../lib/gcc/tricore/4.9.4/tc161\libgcc.a(_fixunsdfsi.o)
                              obj/motor_driver.c.o (__fixunsdfsi)
c:/hightec/toolchains/tricore/v4.9.3.0-infineon-1.0/bin/../lib/gcc/tricore/4.9.4/tc161\libgcc.a(_floatundidf.o)
                              obj/steering_Pid.c.o (__floatundidf)
c:/hightec/toolchains/tricore/v4.9.3.0-infineon-1.0/bin/../lib/gcc/tricore/4.9.4/tc161\libgcc.a(_sf_to_df.o)
                              obj/illd/Libraries/iLLD/TC27D/Tricore/Gtm/Std/IfxGtm_Cmu.c.o (__extendsfdf2)
c:/hightec/toolchains/tricore/v4.9.3.0-infineon-1.0/bin/../lib/gcc/tricore/4.9.4/tc161\libgcc.a(_addsub_df.o)
                              obj/illd/Libraries/iLLD/TC27D/Tricore/Vadc/std/IfxVadc.c.o (__adddf3)
c:/hightec/toolchains/tricore/v4.9.3.0-infineon-1.0/bin/../lib/gcc/tricore/4.9.4/tc161\libgcc.a(_mul_df.o)
                              obj/bsw.c.o (__muldf3)
c:/hightec/toolchains/tricore/v4.9.3.0-infineon-1.0/bin/../lib/gcc/tricore/4.9.4/tc161\libgcc.a(_div_df.o)
                              obj/illd/Libraries/iLLD/TC27D/Tricore/Vadc/std/IfxVadc.c.o (__divdf3)
c:/hightec/toolchains/tricore/v4.9.3.0-infineon-1.0/bin/../lib/gcc/tricore/4.9.4/tc161\libgcc.a(_gt_df.o)
                              obj/motor_driver.c.o (__gtdf2)
c:/hightec/toolchains/tricore/v4.9.3.0-infineon-1.0/bin/../lib/gcc/tricore/4.9.4/tc161\libgcc.a(_ge_df.o)
                              obj/shiparker_App.c.o (__gedf2)
c:/hightec/toolchains/tricore/v4.9.3.0-infineon-1.0/bin/../lib/gcc/tricore/4.9.4/tc161\libgcc.a(_lt_df.o)
                              obj/illd/Libraries/iLLD/TC27D/Tricore/Gtm/Std/IfxGtm_Cmu.c.o (__ltdf2)
c:/hightec/toolchains/tricore/v4.9.3.0-infineon-1.0/bin/../lib/gcc/tricore/4.9.4/tc161\libgcc.a(_si_to_df.o)
                              obj/bsw.c.o (__floatsidf)
c:/hightec/toolchains/tricore/v4.9.3.0-infineon-1.0/bin/../lib/gcc/tricore/4.9.4/tc161\libgcc.a(_df_to_si.o)
                              obj/bsw.c.o (__fixdfsi)
c:/hightec/toolchains/tricore/v4.9.3.0-infineon-1.0/bin/../lib/gcc/tricore/4.9.4/tc161\libgcc.a(_make_df.o)
                              c:/hightec/toolchains/tricore/v4.9.3.0-infineon-1.0/bin/../lib/gcc/tricore/4.9.4/tc161\libgcc.a(_sf_to_df.o) (__make_dp)
c:/hightec/toolchains/tricore/v4.9.3.0-infineon-1.0/bin/../lib/gcc/tricore/4.9.4/tc161\libgcc.a(_df_to_sf.o)
                              obj/illd/Libraries/iLLD/TC27D/Tricore/Vadc/std/IfxVadc.c.o (__truncdfsf2)
c:/hightec/toolchains/tricore/v4.9.3.0-infineon-1.0/bin/../lib/gcc/tricore/4.9.4/tc161\libgcc.a(_thenan_df.o)
                              c:/hightec/toolchains/tricore/v4.9.3.0-infineon-1.0/bin/../lib/gcc/tricore/4.9.4/tc161\libgcc.a(_addsub_df.o) (__thenan_df)
c:/hightec/toolchains/tricore/v4.9.3.0-infineon-1.0/bin/../lib/gcc/tricore/4.9.4/tc161\libgcc.a(_usi_to_df.o)
                              c:/hightec/toolchains/tricore/v4.9.3.0-infineon-1.0/bin/../lib/gcc/tricore/4.9.4/tc161\libgcc.a(_floatundidf.o) (__floatunsidf)
c:/hightec/toolchains/tricore/v4.9.3.0-infineon-1.0/bin/../lib/gcc/tricore/4.9.4/tc161\libgcc.a(udivdi3.o)
                              obj/steering_Pid.c.o (__udivdi3)
c:/hightec/toolchains/tricore/v4.9.3.0-infineon-1.0/bin/../lib/gcc/tricore/4.9.4/tc161\libgcc.a(_ashldi3.o)
                              c:/hightec/toolchains/tricore/v4.9.3.0-infineon-1.0/bin/../lib/gcc/tricore/4.9.4/tc161\libgcc.a(_addsub_df.o) (__ashldi3)
c:/hightec/toolchains/tricore/v4.9.3.0-infineon-1.0/bin/../lib/gcc/tricore/4.9.4/tc161\libgcc.a(_unpack_sf.o)
                              c:/hightec/toolchains/tricore/v4.9.3.0-infineon-1.0/bin/../lib/gcc/tricore/4.9.4/tc161\libgcc.a(_sf_to_df.o) (__unpack_f)
c:/hightec/toolchains/tricore/v4.9.3.0-infineon-1.0/bin/../lib/gcc/tricore/4.9.4/tc161\libgcc.a(_make_sf.o)
                              c:/hightec/toolchains/tricore/v4.9.3.0-infineon-1.0/bin/../lib/gcc/tricore/4.9.4/tc161\libgcc.a(_df_to_sf.o) (__make_fp)
c:/hightec/toolchains/tricore/v4.9.3.0-infineon-1.0/bin/../lib/gcc/tricore/4.9.4/tc161\libgcc.a(_pack_df.o)
                              c:/hightec/toolchains/tricore/v4.9.3.0-infineon-1.0/bin/../lib/gcc/tricore/4.9.4/tc161\libgcc.a(_addsub_df.o) (__pack_d)
c:/hightec/toolchains/tricore/v4.9.3.0-infineon-1.0/bin/../lib/gcc/tricore/4.9.4/tc161\libgcc.a(_unpack_df.o)
                              c:/hightec/toolchains/tricore/v4.9.3.0-infineon-1.0/bin/../lib/gcc/tricore/4.9.4/tc161\libgcc.a(_addsub_df.o) (__unpack_d)
c:/hightec/toolchains/tricore/v4.9.3.0-infineon-1.0/bin/../lib/gcc/tricore/4.9.4/tc161\libgcc.a(_fpcmp_parts_df.o)
                              c:/hightec/toolchains/tricore/v4.9.3.0-infineon-1.0/bin/../lib/gcc/tricore/4.9.4/tc161\libgcc.a(_gt_df.o) (__fpcmp_parts_d)
c:/hightec/toolchains/tricore/v4.9.3.0-infineon-1.0/bin/../lib/gcc/tricore/4.9.4/tc161\libgcc.a(udiv6432.o)
                              c:/hightec/toolchains/tricore/v4.9.3.0-infineon-1.0/bin/../lib/gcc/tricore/4.9.4/tc161\libgcc.a(udivdi3.o) (__udiv6432)
c:/hightec/toolchains/tricore/v4.9.3.0-infineon-1.0/bin/../lib/gcc/tricore/4.9.4/tc161\libgcc.a(_pack_sf.o)
                              c:/hightec/toolchains/tricore/v4.9.3.0-infineon-1.0/bin/../lib/gcc/tricore/4.9.4/tc161\libgcc.a(_make_sf.o) (__pack_f)
c:/hightec/toolchains/tricore/v4.9.3.0-infineon-1.0/bin/../lib/gcc/tricore/4.9.4/../../../../tricore/lib/tc161\libc.a(lib_a-malloc.o)
                              obj/illd/src/Ifx_Fifo.c.o (malloc)
c:/hightec/toolchains/tricore/v4.9.3.0-infineon-1.0/bin/../lib/gcc/tricore/4.9.4/../../../../tricore/lib/tc161\libc.a(lib_a-mallocr.o)
                              c:/hightec/toolchains/tricore/v4.9.3.0-infineon-1.0/bin/../lib/gcc/tricore/4.9.4/../../../../tricore/lib/tc161\libc.a(lib_a-malloc.o) (_malloc_r)
c:/hightec/toolchains/tricore/v4.9.3.0-infineon-1.0/bin/../lib/gcc/tricore/4.9.4/../../../../tricore/lib/tc161\libc.a(lib_a-mlock.o)
                              c:/hightec/toolchains/tricore/v4.9.3.0-infineon-1.0/bin/../lib/gcc/tricore/4.9.4/../../../../tricore/lib/tc161\libc.a(lib_a-mallocr.o) (__malloc_lock)
c:/hightec/toolchains/tricore/v4.9.3.0-infineon-1.0/bin/../lib/gcc/tricore/4.9.4/../../../../tricore/lib/tc161\libc.a(lib_a-sbrkr.o)
                              c:/hightec/toolchains/tricore/v4.9.3.0-infineon-1.0/bin/../lib/gcc/tricore/4.9.4/../../../../tricore/lib/tc161\libc.a(lib_a-mallocr.o) (_sbrk_r)
c:/hightec/toolchains/tricore/v4.9.3.0-infineon-1.0/bin/../lib/gcc/tricore/4.9.4/../../../../tricore/lib/tc161\libc.a(lib_a-strlen.o)
                              obj/bsw.c.o (strlen)
c:/hightec/toolchains/tricore/v4.9.3.0-infineon-1.0/bin/../lib/gcc/tricore/4.9.4/../../../../tricore/lib/tc161\libc.a(lib_a-vsnprintf.o)
                              obj/bsw.c.o (vsnprintf)
c:/hightec/toolchains/tricore/v4.9.3.0-infineon-1.0/bin/../lib/gcc/tricore/4.9.4/../../../../tricore/lib/tc161\libc.a(lib_a-vsprintf.o)
                              obj/illd/src/IfxStdIf_DPipe.c.o (vsprintf)
c:/hightec/toolchains/tricore/v4.9.3.0-infineon-1.0/bin/../lib/gcc/tricore/4.9.4/../../../../tricore/lib/tc161\libc.a(lib_a-freer.o)
                              c:/hightec/toolchains/tricore/v4.9.3.0-infineon-1.0/bin/../lib/gcc/tricore/4.9.4/../../../../tricore/lib/tc161\libc.a(lib_a-malloc.o) (_free_r)
c:/hightec/toolchains/tricore/v4.9.3.0-infineon-1.0/bin/../lib/gcc/tricore/4.9.4/../../../../tricore/lib/tc161\libc.a(lib_a-impure.o)
                              c:/hightec/toolchains/tricore/v4.9.3.0-infineon-1.0/bin/../lib/gcc/tricore/4.9.4/../../../../tricore/lib/tc161\libc.a(lib_a-malloc.o) (_impure_ptr)
c:/hightec/toolchains/tricore/v4.9.3.0-infineon-1.0/bin/../lib/gcc/tricore/4.9.4/../../../../tricore/lib/tc161\libc.a(lib_a-reent.o)
                              c:/hightec/toolchains/tricore/v4.9.3.0-infineon-1.0/bin/../lib/gcc/tricore/4.9.4/../../../../tricore/lib/tc161\libc.a(lib_a-sbrkr.o) (errno)
c:/hightec/toolchains/tricore/v4.9.3.0-infineon-1.0/bin/../lib/gcc/tricore/4.9.4/../../../../tricore/lib/tc161\libc.a(lib_a-svfprintf.o)
                              c:/hightec/toolchains/tricore/v4.9.3.0-infineon-1.0/bin/../lib/gcc/tricore/4.9.4/../../../../tricore/lib/tc161\libc.a(lib_a-vsnprintf.o) (_svfprintf_r)
c:/hightec/toolchains/tricore/v4.9.3.0-infineon-1.0/bin/../lib/gcc/tricore/4.9.4/../../../../tricore/lib/tc161\libc.a(lib_a-dtoa.o)
                              c:/hightec/toolchains/tricore/v4.9.3.0-infineon-1.0/bin/../lib/gcc/tricore/4.9.4/../../../../tricore/lib/tc161\libc.a(lib_a-svfprintf.o) (_dtoa_r)
c:/hightec/toolchains/tricore/v4.9.3.0-infineon-1.0/bin/../lib/gcc/tricore/4.9.4/../../../../tricore/lib/tc161\libc.a(lib_a-locale.o)
                              c:/hightec/toolchains/tricore/v4.9.3.0-infineon-1.0/bin/../lib/gcc/tricore/4.9.4/../../../../tricore/lib/tc161\libc.a(lib_a-svfprintf.o) (_localeconv_r)
c:/hightec/toolchains/tricore/v4.9.3.0-infineon-1.0/bin/../lib/gcc/tricore/4.9.4/../../../../tricore/lib/tc161\libc.a(lib_a-memchr.o)
                              c:/hightec/toolchains/tricore/v4.9.3.0-infineon-1.0/bin/../lib/gcc/tricore/4.9.4/../../../../tricore/lib/tc161\libc.a(lib_a-svfprintf.o) (memchr)
c:/hightec/toolchains/tricore/v4.9.3.0-infineon-1.0/bin/../lib/gcc/tricore/4.9.4/../../../../tricore/lib/tc161\libc.a(lib_a-memcpy.o)
                              c:/hightec/toolchains/tricore/v4.9.3.0-infineon-1.0/bin/../lib/gcc/tricore/4.9.4/../../../../tricore/lib/tc161\libc.a(lib_a-dtoa.o) (memcpy)
c:/hightec/toolchains/tricore/v4.9.3.0-infineon-1.0/bin/../lib/gcc/tricore/4.9.4/../../../../tricore/lib/tc161\libc.a(lib_a-mprec.o)
                              c:/hightec/toolchains/tricore/v4.9.3.0-infineon-1.0/bin/../lib/gcc/tricore/4.9.4/../../../../tricore/lib/tc161\libc.a(lib_a-dtoa.o) (_Balloc)
c:/hightec/toolchains/tricore/v4.9.3.0-infineon-1.0/bin/../lib/gcc/tricore/4.9.4/../../../../tricore/lib/tc161\libc.a(lib_a-s_fpclassify.o)
                              c:/hightec/toolchains/tricore/v4.9.3.0-infineon-1.0/bin/../lib/gcc/tricore/4.9.4/../../../../tricore/lib/tc161\libc.a(lib_a-svfprintf.o) (__fpclassifyd)
c:/hightec/toolchains/tricore/v4.9.3.0-infineon-1.0/bin/../lib/gcc/tricore/4.9.4/../../../../tricore/lib/tc161\libc.a(lib_a-strcmp.o)
                              c:/hightec/toolchains/tricore/v4.9.3.0-infineon-1.0/bin/../lib/gcc/tricore/4.9.4/../../../../tricore/lib/tc161\libc.a(lib_a-locale.o) (strcmp)
c:/hightec/toolchains/tricore/v4.9.3.0-infineon-1.0/bin/../lib/gcc/tricore/4.9.4/../../../../tricore/lib/tc161\libc.a(lib_a-svfiprintf.o)
                              c:/hightec/toolchains/tricore/v4.9.3.0-infineon-1.0/bin/../lib/gcc/tricore/4.9.4/../../../../tricore/lib/tc161\libc.a(lib_a-svfprintf.o) (__ssprint_r)
c:/hightec/toolchains/tricore/v4.9.3.0-infineon-1.0/bin/../lib/gcc/tricore/4.9.4/../../../../tricore/lib/tc161\libc.a(lib_a-callocr.o)
                              c:/hightec/toolchains/tricore/v4.9.3.0-infineon-1.0/bin/../lib/gcc/tricore/4.9.4/../../../../tricore/lib/tc161\libc.a(lib_a-mprec.o) (_calloc_r)
c:/hightec/toolchains/tricore/v4.9.3.0-infineon-1.0/bin/../lib/gcc/tricore/4.9.4/../../../../tricore/lib/tc161\libc.a(lib_a-memmove.o)
                              c:/hightec/toolchains/tricore/v4.9.3.0-infineon-1.0/bin/../lib/gcc/tricore/4.9.4/../../../../tricore/lib/tc161\libc.a(lib_a-svfiprintf.o) (memmove)
c:/hightec/toolchains/tricore/v4.9.3.0-infineon-1.0/bin/../lib/gcc/tricore/4.9.4/../../../../tricore/lib/tc161\libc.a(lib_a-memset.o)
                              c:/hightec/toolchains/tricore/v4.9.3.0-infineon-1.0/bin/../lib/gcc/tricore/4.9.4/../../../../tricore/lib/tc161\libc.a(lib_a-callocr.o) (memset)
c:/hightec/toolchains/tricore/v4.9.3.0-infineon-1.0/bin/../lib/gcc/tricore/4.9.4/../../../../tricore/lib/tc161\libc.a(lib_a-reallocr.o)
                              c:/hightec/toolchains/tricore/v4.9.3.0-infineon-1.0/bin/../lib/gcc/tricore/4.9.4/../../../../tricore/lib/tc161\libc.a(lib_a-svfiprintf.o) (_realloc_r)
c:/hightec/toolchains/tricore/v4.9.3.0-infineon-1.0/bin/../lib/gcc/tricore/4.9.4/../../../../tricore/lib/tc161\libos.a(libos_exit.o)
                              C:\Users\USER\Desktop\AUTODR~1\TC275\erika\lib\libee.a(ee_tc_cstart.c.o) (_exit)
c:/hightec/toolchains/tricore/v4.9.3.0-infineon-1.0/bin/../lib/gcc/tricore/4.9.4/../../../../tricore/lib/tc161\libos.a(libos_sbrk.o)
                              c:/hightec/toolchains/tricore/v4.9.3.0-infineon-1.0/bin/../lib/gcc/tricore/4.9.4/../../../../tricore/lib/tc161\libc.a(lib_a-sbrkr.o) (sbrk)
c:/hightec/toolchains/tricore/v4.9.3.0-infineon-1.0/bin/../lib/gcc/tricore/4.9.4/../../../../tricore/lib/tc161\libos.a(libos.o)
                              c:/hightec/toolchains/tricore/v4.9.3.0-infineon-1.0/bin/../lib/gcc/tricore/4.9.4/../../../../tricore/lib/tc161\libos.a(libos_sbrk.o) (__errno)
c:/hightec/toolchains/tricore/v4.9.3.0-infineon-1.0/bin/../lib/gcc/tricore/4.9.4/../../../../tricore/lib/tc161\libos.a(libos_abort.o)
                              c:/hightec/toolchains/tricore/v4.9.3.0-infineon-1.0/bin/../lib/gcc/tricore/4.9.4/../../../../tricore/lib/tc161\libos.a(libos_sbrk.o) (abort)
c:/hightec/toolchains/tricore/v4.9.3.0-infineon-1.0/bin/../lib/gcc/tricore/4.9.4/../../../../tricore/lib/tc161\libm.a(lib_a-s_atan.o)
                              obj/steering_Pid.c.o (atan)
c:/hightec/toolchains/tricore/v4.9.3.0-infineon-1.0/bin/../lib/gcc/tricore/4.9.4/../../../../tricore/lib/tc161\libm.a(lib_a-s_fabs.o)
                              c:/hightec/toolchains/tricore/v4.9.3.0-infineon-1.0/bin/../lib/gcc/tricore/4.9.4/../../../../tricore/lib/tc161\libm.a(lib_a-s_atan.o) (fabs)
c:/hightec/toolchains/tricore/v4.9.3.0-infineon-1.0/bin/../lib/gcc/tricore/4.9.4/../../../../tricore/lib/tc161\libm.a(lib_a-wf_sincos.o)
                              obj/steering_Pid.c.o (sincosf)
c:/hightec/toolchains/tricore/v4.9.3.0-infineon-1.0/bin/../lib/gcc/tricore/4.9.4/../../../../tricore/lib/tc161\libm.a(lib_a-sf_cos.o)
                              c:/hightec/toolchains/tricore/v4.9.3.0-infineon-1.0/bin/../lib/gcc/tricore/4.9.4/../../../../tricore/lib/tc161\libm.a(lib_a-wf_sincos.o) (cosf)
c:/hightec/toolchains/tricore/v4.9.3.0-infineon-1.0/bin/../lib/gcc/tricore/4.9.4/../../../../tricore/lib/tc161\libm.a(lib_a-sf_sin.o)
                              c:/hightec/toolchains/tricore/v4.9.3.0-infineon-1.0/bin/../lib/gcc/tricore/4.9.4/../../../../tricore/lib/tc161\libm.a(lib_a-wf_sincos.o) (sinf)
c:/hightec/toolchains/tricore/v4.9.3.0-infineon-1.0/bin/../lib/gcc/tricore/4.9.4/../../../../tricore/lib/tc161\libm.a(lib_a-ef_rem_pio2.o)
                              c:/hightec/toolchains/tricore/v4.9.3.0-infineon-1.0/bin/../lib/gcc/tricore/4.9.4/../../../../tricore/lib/tc161\libm.a(lib_a-sf_cos.o) (__ieee754_rem_pio2f)
c:/hightec/toolchains/tricore/v4.9.3.0-infineon-1.0/bin/../lib/gcc/tricore/4.9.4/../../../../tricore/lib/tc161\libm.a(lib_a-kf_cos.o)
                              c:/hightec/toolchains/tricore/v4.9.3.0-infineon-1.0/bin/../lib/gcc/tricore/4.9.4/../../../../tricore/lib/tc161\libm.a(lib_a-sf_cos.o) (__kernel_cosf)
c:/hightec/toolchains/tricore/v4.9.3.0-infineon-1.0/bin/../lib/gcc/tricore/4.9.4/../../../../tricore/lib/tc161\libm.a(lib_a-kf_rem_pio2.o)
                              c:/hightec/toolchains/tricore/v4.9.3.0-infineon-1.0/bin/../lib/gcc/tricore/4.9.4/../../../../tricore/lib/tc161\libm.a(lib_a-ef_rem_pio2.o) (__kernel_rem_pio2f)
c:/hightec/toolchains/tricore/v4.9.3.0-infineon-1.0/bin/../lib/gcc/tricore/4.9.4/../../../../tricore/lib/tc161\libm.a(lib_a-kf_sin.o)
                              c:/hightec/toolchains/tricore/v4.9.3.0-infineon-1.0/bin/../lib/gcc/tricore/4.9.4/../../../../tricore/lib/tc161\libm.a(lib_a-sf_cos.o) (__kernel_sinf)
c:/hightec/toolchains/tricore/v4.9.3.0-infineon-1.0/bin/../lib/gcc/tricore/4.9.4/../../../../tricore/lib/tc161\libm.a(lib_a-sf_fabs.o)
                              c:/hightec/toolchains/tricore/v4.9.3.0-infineon-1.0/bin/../lib/gcc/tricore/4.9.4/../../../../tricore/lib/tc161\libm.a(lib_a-ef_rem_pio2.o) (fabsf)
c:/hightec/toolchains/tricore/v4.9.3.0-infineon-1.0/bin/../lib/gcc/tricore/4.9.4/../../../../tricore/lib/tc161\libm.a(lib_a-sf_floor.o)
                              c:/hightec/toolchains/tricore/v4.9.3.0-infineon-1.0/bin/../lib/gcc/tricore/4.9.4/../../../../tricore/lib/tc161\libm.a(lib_a-kf_rem_pio2.o) (floorf)
c:/hightec/toolchains/tricore/v4.9.3.0-infineon-1.0/bin/../lib/gcc/tricore/4.9.4/../../../../tricore/lib/tc161\libm.a(lib_a-sf_scalbn.o)
                              c:/hightec/toolchains/tricore/v4.9.3.0-infineon-1.0/bin/../lib/gcc/tricore/4.9.4/../../../../tricore/lib/tc161\libm.a(lib_a-kf_rem_pio2.o) (scalbnf)
c:/hightec/toolchains/tricore/v4.9.3.0-infineon-1.0/bin/../lib/gcc/tricore/4.9.4/../../../../tricore/lib/tc161\libm.a(lib_a-sf_copysign.o)
                              c:/hightec/toolchains/tricore/v4.9.3.0-infineon-1.0/bin/../lib/gcc/tricore/4.9.4/../../../../tricore/lib/tc161\libm.a(lib_a-sf_scalbn.o) (copysignf)
c:/hightec/toolchains/tricore/v4.9.3.0-infineon-1.0/bin/../lib/gcc/tricore/4.9.4/tc161\libgcc.a(_eq_df.o)
                              c:/hightec/toolchains/tricore/v4.9.3.0-infineon-1.0/bin/../lib/gcc/tricore/4.9.4/../../../../tricore/lib/tc161\libc.a(lib_a-svfprintf.o) (__eqdf2)
c:/hightec/toolchains/tricore/v4.9.3.0-infineon-1.0/bin/../lib/gcc/tricore/4.9.4/tc161\libgcc.a(_ne_df.o)
                              c:/hightec/toolchains/tricore/v4.9.3.0-infineon-1.0/bin/../lib/gcc/tricore/4.9.4/../../../../tricore/lib/tc161\libc.a(lib_a-svfprintf.o) (__nedf2)
c:/hightec/toolchains/tricore/v4.9.3.0-infineon-1.0/bin/../lib/gcc/tricore/4.9.4/tc161\libgcc.a(umoddi3.o)
                              c:/hightec/toolchains/tricore/v4.9.3.0-infineon-1.0/bin/../lib/gcc/tricore/4.9.4/../../../../tricore/lib/tc161\libc.a(lib_a-svfprintf.o) (__umoddi3)

Discarded input sections

 .bss           0x0000000000000000        0x0 obj/asw.c.o
 .text          0x0000000000000000        0x0 obj/ee_applcfg.c.o
 .data          0x0000000000000000        0x0 obj/hall_Driver.c.o
 .data          0x0000000000000000        0x0 obj/illd/Libraries/iLLD/TC27D/Tricore/Gtm/Std/IfxGtm.c.o
 .bss           0x0000000000000000        0x0 obj/illd/Libraries/iLLD/TC27D/Tricore/Gtm/Std/IfxGtm.c.o
 .data          0x0000000000000000        0x0 obj/illd/Libraries/iLLD/TC27D/Tricore/Gtm/Std/IfxGtm_Cmu.c.o
 .bss           0x0000000000000000        0x0 obj/illd/Libraries/iLLD/TC27D/Tricore/Gtm/Std/IfxGtm_Cmu.c.o
 .data          0x0000000000000000        0x0 obj/illd/Libraries/iLLD/TC27D/Tricore/Gtm/Std/IfxGtm_Dpll.c.o
 .bss           0x0000000000000000        0x0 obj/illd/Libraries/iLLD/TC27D/Tricore/Gtm/Std/IfxGtm_Dpll.c.o
 .data          0x0000000000000000        0x0 obj/illd/Libraries/iLLD/TC27D/Tricore/Gtm/Std/IfxGtm_Tom.c.o
 .bss           0x0000000000000000        0x0 obj/illd/Libraries/iLLD/TC27D/Tricore/Gtm/Std/IfxGtm_Tom.c.o
 .data          0x0000000000000000        0x0 obj/illd/Libraries/iLLD/TC27D/Tricore/Gtm/Tom/Pwm/IfxGtm_Tom_Pwm.c.o
 .bss           0x0000000000000000        0x0 obj/illd/Libraries/iLLD/TC27D/Tricore/Gtm/Tom/Pwm/IfxGtm_Tom_Pwm.c.o
 .data          0x0000000000000000        0x0 obj/illd/Libraries/iLLD/TC27D/Tricore/Vadc/std/IfxVadc.c.o
 .bss           0x0000000000000000        0x0 obj/illd/Libraries/iLLD/TC27D/Tricore/Vadc/std/IfxVadc.c.o
 .text          0x0000000000000000        0x0 obj/illd/Libraries/iLLD/TC27D/Tricore/_Impl/IfxVadc_cfg.c.o
 .data          0x0000000000000000        0x0 obj/illd/Libraries/iLLD/TC27D/Tricore/_Impl/IfxVadc_cfg.c.o
 .bss           0x0000000000000000        0x0 obj/illd/Libraries/iLLD/TC27D/Tricore/_Impl/IfxVadc_cfg.c.o
 .data          0x0000000000000000        0x0 obj/illd/Libraries/iLLD/TC27D/Tricore/_PinMap/IfxGtm_PinMap.c.o
 .bss           0x0000000000000000        0x0 obj/illd/Libraries/iLLD/TC27D/Tricore/_PinMap/IfxGtm_PinMap.c.o
 .text          0x0000000000000000        0x0 obj/illd/Libraries/iLLD/TC27D/Tricore/_PinMap/IfxPort_PinMap.c.o
 .bss           0x0000000000000000        0x0 obj/illd/Libraries/iLLD/TC27D/Tricore/_PinMap/IfxPort_PinMap.c.o
 .text          0x0000000000000000       0x7e obj/illd/src/Bsp.c.o
 .data          0x0000000000000000        0x0 obj/illd/src/Bsp.c.o
 .bss           0x0000000000000000        0x0 obj/illd/src/Bsp.c.o
 .text          0x0000000000000000       0xf4 obj/illd/src/CompilerGnuc.c.o
 .data          0x0000000000000000        0x0 obj/illd/src/CompilerGnuc.c.o
 .bss           0x0000000000000000        0x0 obj/illd/src/CompilerGnuc.c.o
 .data          0x0000000000000000        0x0 obj/illd/src/IfxAsclin.c.o
 .bss           0x0000000000000000        0x0 obj/illd/src/IfxAsclin.c.o
 .data          0x0000000000000000        0x0 obj/illd/src/IfxAsclin_Asc.c.o
 .bss           0x0000000000000000        0x0 obj/illd/src/IfxAsclin_Asc.c.o
 .text          0x0000000000000000        0x0 obj/illd/src/IfxAsclin_PinMap.c.o
 .data          0x0000000000000000      0x290 obj/illd/src/IfxAsclin_PinMap.c.o
 .bss           0x0000000000000000        0x0 obj/illd/src/IfxAsclin_PinMap.c.o
 .text          0x0000000000000000        0x0 obj/illd/src/IfxAsclin_cfg.c.o
 .data          0x0000000000000000        0x0 obj/illd/src/IfxAsclin_cfg.c.o
 .bss           0x0000000000000000        0x0 obj/illd/src/IfxAsclin_cfg.c.o
 .text          0x0000000000000000      0x2a2 obj/illd/src/IfxCpu.c.o
 .data          0x0000000000000000        0x0 obj/illd/src/IfxCpu.c.o
 .bss           0x0000000000000000        0x0 obj/illd/src/IfxCpu.c.o
 .text          0x0000000000000000       0x2e obj/illd/src/IfxCpu_Irq.c.o
 .data          0x0000000000000000        0x0 obj/illd/src/IfxCpu_Irq.c.o
 .bss           0x0000000000000000      0x400 obj/illd/src/IfxCpu_Irq.c.o
 .intvec_tc0_255
                0x0000000000000000        0xe obj/illd/src/IfxCpu_Irq.c.o
 .text          0x0000000000000000        0x0 obj/illd/src/IfxCpu_cfg.c.o
 .data          0x0000000000000000        0x0 obj/illd/src/IfxCpu_cfg.c.o
 .bss           0x0000000000000000        0x0 obj/illd/src/IfxCpu_cfg.c.o
 .rodata        0x0000000000000000       0x18 obj/illd/src/IfxCpu_cfg.c.o
 .data          0x0000000000000000        0x0 obj/illd/src/IfxPort.c.o
 .bss           0x0000000000000000        0x0 obj/illd/src/IfxPort.c.o
 .text          0x0000000000000000        0x0 obj/illd/src/IfxPort_cfg.c.o
 .data          0x0000000000000000        0x0 obj/illd/src/IfxPort_cfg.c.o
 .bss           0x0000000000000000        0x0 obj/illd/src/IfxPort_cfg.c.o
 .bss           0x0000000000000000        0x0 obj/illd/src/IfxScuCcu.c.o
 .data          0x0000000000000000        0x0 obj/illd/src/IfxScuEru.c.o
 .bss           0x0000000000000000        0x0 obj/illd/src/IfxScuEru.c.o
 .data          0x0000000000000000        0x0 obj/illd/src/IfxScuWdt.c.o
 .bss           0x0000000000000000        0x0 obj/illd/src/IfxScuWdt.c.o
 .text          0x0000000000000000        0x0 obj/illd/src/IfxScu_PinMap.c.o
 .data          0x0000000000000000       0xd0 obj/illd/src/IfxScu_PinMap.c.o
 .bss           0x0000000000000000        0x0 obj/illd/src/IfxScu_PinMap.c.o
 .text          0x0000000000000000        0x0 obj/illd/src/IfxScu_cfg.c.o
 .data          0x0000000000000000        0x0 obj/illd/src/IfxScu_cfg.c.o
 .bss           0x0000000000000000        0x0 obj/illd/src/IfxScu_cfg.c.o
 .text          0x0000000000000000        0x0 obj/illd/src/IfxSrc.c.o
 .data          0x0000000000000000        0x0 obj/illd/src/IfxSrc.c.o
 .bss           0x0000000000000000        0x0 obj/illd/src/IfxSrc.c.o
 .text          0x0000000000000000        0x0 obj/illd/src/IfxSrc_cfg.c.o
 .data          0x0000000000000000        0x0 obj/illd/src/IfxSrc_cfg.c.o
 .bss           0x0000000000000000        0x0 obj/illd/src/IfxSrc_cfg.c.o
 .text          0x0000000000000000       0x3a obj/illd/src/IfxStdIf_DPipe.c.o
 .data          0x0000000000000000        0x0 obj/illd/src/IfxStdIf_DPipe.c.o
 .bss           0x0000000000000000        0x0 obj/illd/src/IfxStdIf_DPipe.c.o
 .text          0x0000000000000000      0x278 obj/illd/src/IfxStm.c.o
 .data          0x0000000000000000        0x0 obj/illd/src/IfxStm.c.o
 .bss           0x0000000000000000        0x0 obj/illd/src/IfxStm.c.o
 .text          0x0000000000000000        0x0 obj/illd/src/IfxStm_cfg.c.o
 .data          0x0000000000000000        0x0 obj/illd/src/IfxStm_cfg.c.o
 .bss           0x0000000000000000        0x0 obj/illd/src/IfxStm_cfg.c.o
 .rodata        0x0000000000000000       0x18 obj/illd/src/IfxStm_cfg.c.o
 .data          0x0000000000000000        0x0 obj/illd/src/IfxVadc_Adc.c.o
 .bss           0x0000000000000000        0x0 obj/illd/src/IfxVadc_Adc.c.o
 .data          0x0000000000000000        0x0 obj/illd/src/Ifx_CircularBuffer.c.o
 .bss           0x0000000000000000        0x0 obj/illd/src/Ifx_CircularBuffer.c.o
 .data          0x0000000000000000        0x0 obj/illd/src/Ifx_Fifo.c.o
 .bss           0x0000000000000000        0x0 obj/illd/src/Ifx_Fifo.c.o
 .data          0x0000000000000000        0x0 obj/motor_driver.c.o
 .data          0x0000000000000000        0x0 obj/shiparker_App.c.o
 .bss           0x0000000000000000        0x0 obj/ultrasonic_Driver.c.o
 .data          0x0000000000000000        0x0 C:\Users\USER\Desktop\AUTODR~1\TC275\erika\lib\libee.a(ee_tc_cstart.c.o)
 .bss           0x0000000000000000        0x0 C:\Users\USER\Desktop\AUTODR~1\TC275\erika\lib\libee.a(ee_tc_cstart.c.o)
 .data          0x0000000000000000        0x0 C:\Users\USER\Desktop\AUTODR~1\TC275\erika\lib\libee.a(ee_tc_system.c.o)
 .text          0x0000000000000000        0x0 C:\Users\USER\Desktop\AUTODR~1\TC275\erika\lib\libee.a(ee_tc_trapvec.c.o)
 .data          0x0000000000000000        0x0 C:\Users\USER\Desktop\AUTODR~1\TC275\erika\lib\libee.a(ee_tc_trapvec.c.o)
 .bss           0x0000000000000000        0x0 C:\Users\USER\Desktop\AUTODR~1\TC275\erika\lib\libee.a(ee_tc_trapvec.c.o)
 .data          0x0000000000000000        0x0 C:\Users\USER\Desktop\AUTODR~1\TC275\erika\lib\libee.a(ee_tc_intvec.c.o)
 .bss           0x0000000000000000        0x0 C:\Users\USER\Desktop\AUTODR~1\TC275\erika\lib\libee.a(ee_tc_intvec.c.o)
 .data          0x0000000000000000        0x0 C:\Users\USER\Desktop\AUTODR~1\TC275\erika\lib\libee.a(ee_oo_api_osek.c.o)
 .bss           0x0000000000000000        0x0 C:\Users\USER\Desktop\AUTODR~1\TC275\erika\lib\libee.a(ee_oo_api_osek.c.o)
 .data          0x0000000000000000        0x0 C:\Users\USER\Desktop\AUTODR~1\TC275\erika\lib\libee.a(ee_oo_sched_entry_points.c.o)
 .bss           0x0000000000000000        0x0 C:\Users\USER\Desktop\AUTODR~1\TC275\erika\lib\libee.a(ee_oo_sched_entry_points.c.o)
 .data          0x0000000000000000        0x0 C:\Users\USER\Desktop\AUTODR~1\TC275\erika\lib\libee.a(ee_oo_scheduler.c.o)
 .bss           0x0000000000000000        0x0 C:\Users\USER\Desktop\AUTODR~1\TC275\erika\lib\libee.a(ee_oo_scheduler.c.o)
 .data          0x0000000000000000        0x0 C:\Users\USER\Desktop\AUTODR~1\TC275\erika\lib\libee.a(ee_oo_kernel.c.o)
 .bss           0x0000000000000000        0x0 C:\Users\USER\Desktop\AUTODR~1\TC275\erika\lib\libee.a(ee_oo_kernel.c.o)
 .data          0x0000000000000000        0x0 C:\Users\USER\Desktop\AUTODR~1\TC275\erika\lib\libee.a(ee_oo_sched_partitioned.c.o)
 .bss           0x0000000000000000        0x0 C:\Users\USER\Desktop\AUTODR~1\TC275\erika\lib\libee.a(ee_oo_sched_partitioned.c.o)
 .data          0x0000000000000000        0x0 C:\Users\USER\Desktop\AUTODR~1\TC275\erika\lib\libee.a(ee_oo_counter.c.o)
 .bss           0x0000000000000000        0x0 C:\Users\USER\Desktop\AUTODR~1\TC275\erika\lib\libee.a(ee_oo_counter.c.o)
 .data          0x0000000000000000        0x0 C:\Users\USER\Desktop\AUTODR~1\TC275\erika\lib\libee.a(ee_oo_alarm.c.o)
 .bss           0x0000000000000000        0x0 C:\Users\USER\Desktop\AUTODR~1\TC275\erika\lib\libee.a(ee_oo_alarm.c.o)
 .data          0x0000000000000000        0x0 C:\Users\USER\Desktop\AUTODR~1\TC275\erika\lib\libee.a(ee_std_change_context.c.o)
 .bss           0x0000000000000000        0x0 C:\Users\USER\Desktop\AUTODR~1\TC275\erika\lib\libee.a(ee_std_change_context.c.o)
 .data          0x0000000000000000        0x0 C:\Users\USER\Desktop\AUTODR~1\TC275\erika\lib\libee.a(ee_tc_hal.c.o)
 .bss           0x0000000000000000        0x0 C:\Users\USER\Desktop\AUTODR~1\TC275\erika\lib\libee.a(ee_tc_hal.c.o)
 .data          0x0000000000000000        0x0 C:\Users\USER\Desktop\AUTODR~1\TC275\erika\lib\libee.a(ee_tc_ctx.c.o)
 .bss           0x0000000000000000        0x0 C:\Users\USER\Desktop\AUTODR~1\TC275\erika\lib\libee.a(ee_tc_ctx.c.o)
 .text          0x0000000000000000        0x0 c:/hightec/toolchains/tricore/v4.9.3.0-infineon-1.0/bin/../lib/gcc/tricore/4.9.4/tc161\libgcc.a(_lshrdi3.o)
 .data          0x0000000000000000        0x0 c:/hightec/toolchains/tricore/v4.9.3.0-infineon-1.0/bin/../lib/gcc/tricore/4.9.4/tc161\libgcc.a(_lshrdi3.o)
 .bss           0x0000000000000000        0x0 c:/hightec/toolchains/tricore/v4.9.3.0-infineon-1.0/bin/../lib/gcc/tricore/4.9.4/tc161\libgcc.a(_lshrdi3.o)
 .text          0x0000000000000000        0x0 c:/hightec/toolchains/tricore/v4.9.3.0-infineon-1.0/bin/../lib/gcc/tricore/4.9.4/tc161\libgcc.a(_fixunsdfsi.o)
 .data          0x0000000000000000        0x0 c:/hightec/toolchains/tricore/v4.9.3.0-infineon-1.0/bin/../lib/gcc/tricore/4.9.4/tc161\libgcc.a(_fixunsdfsi.o)
 .bss           0x0000000000000000        0x0 c:/hightec/toolchains/tricore/v4.9.3.0-infineon-1.0/bin/../lib/gcc/tricore/4.9.4/tc161\libgcc.a(_fixunsdfsi.o)
 .text          0x0000000000000000        0x0 c:/hightec/toolchains/tricore/v4.9.3.0-infineon-1.0/bin/../lib/gcc/tricore/4.9.4/tc161\libgcc.a(_floatundidf.o)
 .data          0x0000000000000000        0x0 c:/hightec/toolchains/tricore/v4.9.3.0-infineon-1.0/bin/../lib/gcc/tricore/4.9.4/tc161\libgcc.a(_floatundidf.o)
 .bss           0x0000000000000000        0x0 c:/hightec/toolchains/tricore/v4.9.3.0-infineon-1.0/bin/../lib/gcc/tricore/4.9.4/tc161\libgcc.a(_floatundidf.o)
 .text          0x0000000000000000        0x0 c:/hightec/toolchains/tricore/v4.9.3.0-infineon-1.0/bin/../lib/gcc/tricore/4.9.4/tc161\libgcc.a(_sf_to_df.o)
 .data          0x0000000000000000        0x0 c:/hightec/toolchains/tricore/v4.9.3.0-infineon-1.0/bin/../lib/gcc/tricore/4.9.4/tc161\libgcc.a(_sf_to_df.o)
 .bss           0x0000000000000000        0x0 c:/hightec/toolchains/tricore/v4.9.3.0-infineon-1.0/bin/../lib/gcc/tricore/4.9.4/tc161\libgcc.a(_sf_to_df.o)
 .text          0x0000000000000000        0x0 c:/hightec/toolchains/tricore/v4.9.3.0-infineon-1.0/bin/../lib/gcc/tricore/4.9.4/tc161\libgcc.a(_addsub_df.o)
 .data          0x0000000000000000        0x0 c:/hightec/toolchains/tricore/v4.9.3.0-infineon-1.0/bin/../lib/gcc/tricore/4.9.4/tc161\libgcc.a(_addsub_df.o)
 .bss           0x0000000000000000        0x0 c:/hightec/toolchains/tricore/v4.9.3.0-infineon-1.0/bin/../lib/gcc/tricore/4.9.4/tc161\libgcc.a(_addsub_df.o)
 .text          0x0000000000000000        0x0 c:/hightec/toolchains/tricore/v4.9.3.0-infineon-1.0/bin/../lib/gcc/tricore/4.9.4/tc161\libgcc.a(_mul_df.o)
 .data          0x0000000000000000        0x0 c:/hightec/toolchains/tricore/v4.9.3.0-infineon-1.0/bin/../lib/gcc/tricore/4.9.4/tc161\libgcc.a(_mul_df.o)
 .bss           0x0000000000000000        0x0 c:/hightec/toolchains/tricore/v4.9.3.0-infineon-1.0/bin/../lib/gcc/tricore/4.9.4/tc161\libgcc.a(_mul_df.o)
 .text          0x0000000000000000        0x0 c:/hightec/toolchains/tricore/v4.9.3.0-infineon-1.0/bin/../lib/gcc/tricore/4.9.4/tc161\libgcc.a(_div_df.o)
 .data          0x0000000000000000        0x0 c:/hightec/toolchains/tricore/v4.9.3.0-infineon-1.0/bin/../lib/gcc/tricore/4.9.4/tc161\libgcc.a(_div_df.o)
 .bss           0x0000000000000000        0x0 c:/hightec/toolchains/tricore/v4.9.3.0-infineon-1.0/bin/../lib/gcc/tricore/4.9.4/tc161\libgcc.a(_div_df.o)
 .text          0x0000000000000000        0x0 c:/hightec/toolchains/tricore/v4.9.3.0-infineon-1.0/bin/../lib/gcc/tricore/4.9.4/tc161\libgcc.a(_gt_df.o)
 .data          0x0000000000000000        0x0 c:/hightec/toolchains/tricore/v4.9.3.0-infineon-1.0/bin/../lib/gcc/tricore/4.9.4/tc161\libgcc.a(_gt_df.o)
 .bss           0x0000000000000000        0x0 c:/hightec/toolchains/tricore/v4.9.3.0-infineon-1.0/bin/../lib/gcc/tricore/4.9.4/tc161\libgcc.a(_gt_df.o)
 .text          0x0000000000000000        0x0 c:/hightec/toolchains/tricore/v4.9.3.0-infineon-1.0/bin/../lib/gcc/tricore/4.9.4/tc161\libgcc.a(_ge_df.o)
 .data          0x0000000000000000        0x0 c:/hightec/toolchains/tricore/v4.9.3.0-infineon-1.0/bin/../lib/gcc/tricore/4.9.4/tc161\libgcc.a(_ge_df.o)
 .bss           0x0000000000000000        0x0 c:/hightec/toolchains/tricore/v4.9.3.0-infineon-1.0/bin/../lib/gcc/tricore/4.9.4/tc161\libgcc.a(_ge_df.o)
 .text          0x0000000000000000        0x0 c:/hightec/toolchains/tricore/v4.9.3.0-infineon-1.0/bin/../lib/gcc/tricore/4.9.4/tc161\libgcc.a(_lt_df.o)
 .data          0x0000000000000000        0x0 c:/hightec/toolchains/tricore/v4.9.3.0-infineon-1.0/bin/../lib/gcc/tricore/4.9.4/tc161\libgcc.a(_lt_df.o)
 .bss           0x0000000000000000        0x0 c:/hightec/toolchains/tricore/v4.9.3.0-infineon-1.0/bin/../lib/gcc/tricore/4.9.4/tc161\libgcc.a(_lt_df.o)
 .text          0x0000000000000000        0x0 c:/hightec/toolchains/tricore/v4.9.3.0-infineon-1.0/bin/../lib/gcc/tricore/4.9.4/tc161\libgcc.a(_si_to_df.o)
 .data          0x0000000000000000        0x0 c:/hightec/toolchains/tricore/v4.9.3.0-infineon-1.0/bin/../lib/gcc/tricore/4.9.4/tc161\libgcc.a(_si_to_df.o)
 .bss           0x0000000000000000        0x0 c:/hightec/toolchains/tricore/v4.9.3.0-infineon-1.0/bin/../lib/gcc/tricore/4.9.4/tc161\libgcc.a(_si_to_df.o)
 .text          0x0000000000000000        0x0 c:/hightec/toolchains/tricore/v4.9.3.0-infineon-1.0/bin/../lib/gcc/tricore/4.9.4/tc161\libgcc.a(_df_to_si.o)
 .data          0x0000000000000000        0x0 c:/hightec/toolchains/tricore/v4.9.3.0-infineon-1.0/bin/../lib/gcc/tricore/4.9.4/tc161\libgcc.a(_df_to_si.o)
 .bss           0x0000000000000000        0x0 c:/hightec/toolchains/tricore/v4.9.3.0-infineon-1.0/bin/../lib/gcc/tricore/4.9.4/tc161\libgcc.a(_df_to_si.o)
 .text          0x0000000000000000        0x0 c:/hightec/toolchains/tricore/v4.9.3.0-infineon-1.0/bin/../lib/gcc/tricore/4.9.4/tc161\libgcc.a(_make_df.o)
 .data          0x0000000000000000        0x0 c:/hightec/toolchains/tricore/v4.9.3.0-infineon-1.0/bin/../lib/gcc/tricore/4.9.4/tc161\libgcc.a(_make_df.o)
 .bss           0x0000000000000000        0x0 c:/hightec/toolchains/tricore/v4.9.3.0-infineon-1.0/bin/../lib/gcc/tricore/4.9.4/tc161\libgcc.a(_make_df.o)
 .text          0x0000000000000000        0x0 c:/hightec/toolchains/tricore/v4.9.3.0-infineon-1.0/bin/../lib/gcc/tricore/4.9.4/tc161\libgcc.a(_df_to_sf.o)
 .data          0x0000000000000000        0x0 c:/hightec/toolchains/tricore/v4.9.3.0-infineon-1.0/bin/../lib/gcc/tricore/4.9.4/tc161\libgcc.a(_df_to_sf.o)
 .bss           0x0000000000000000        0x0 c:/hightec/toolchains/tricore/v4.9.3.0-infineon-1.0/bin/../lib/gcc/tricore/4.9.4/tc161\libgcc.a(_df_to_sf.o)
 .text          0x0000000000000000        0x0 c:/hightec/toolchains/tricore/v4.9.3.0-infineon-1.0/bin/../lib/gcc/tricore/4.9.4/tc161\libgcc.a(_thenan_df.o)
 .data          0x0000000000000000        0x0 c:/hightec/toolchains/tricore/v4.9.3.0-infineon-1.0/bin/../lib/gcc/tricore/4.9.4/tc161\libgcc.a(_thenan_df.o)
 .bss           0x0000000000000000        0x0 c:/hightec/toolchains/tricore/v4.9.3.0-infineon-1.0/bin/../lib/gcc/tricore/4.9.4/tc161\libgcc.a(_thenan_df.o)
 .text          0x0000000000000000        0x0 c:/hightec/toolchains/tricore/v4.9.3.0-infineon-1.0/bin/../lib/gcc/tricore/4.9.4/tc161\libgcc.a(_usi_to_df.o)
 .data          0x0000000000000000        0x0 c:/hightec/toolchains/tricore/v4.9.3.0-infineon-1.0/bin/../lib/gcc/tricore/4.9.4/tc161\libgcc.a(_usi_to_df.o)
 .bss           0x0000000000000000        0x0 c:/hightec/toolchains/tricore/v4.9.3.0-infineon-1.0/bin/../lib/gcc/tricore/4.9.4/tc161\libgcc.a(_usi_to_df.o)
 .text          0x0000000000000000        0x0 c:/hightec/toolchains/tricore/v4.9.3.0-infineon-1.0/bin/../lib/gcc/tricore/4.9.4/tc161\libgcc.a(udivdi3.o)
 .data          0x0000000000000000        0x0 c:/hightec/toolchains/tricore/v4.9.3.0-infineon-1.0/bin/../lib/gcc/tricore/4.9.4/tc161\libgcc.a(udivdi3.o)
 .bss           0x0000000000000000        0x0 c:/hightec/toolchains/tricore/v4.9.3.0-infineon-1.0/bin/../lib/gcc/tricore/4.9.4/tc161\libgcc.a(udivdi3.o)
 .text          0x0000000000000000        0x0 c:/hightec/toolchains/tricore/v4.9.3.0-infineon-1.0/bin/../lib/gcc/tricore/4.9.4/tc161\libgcc.a(_ashldi3.o)
 .data          0x0000000000000000        0x0 c:/hightec/toolchains/tricore/v4.9.3.0-infineon-1.0/bin/../lib/gcc/tricore/4.9.4/tc161\libgcc.a(_ashldi3.o)
 .bss           0x0000000000000000        0x0 c:/hightec/toolchains/tricore/v4.9.3.0-infineon-1.0/bin/../lib/gcc/tricore/4.9.4/tc161\libgcc.a(_ashldi3.o)
 .text          0x0000000000000000        0x0 c:/hightec/toolchains/tricore/v4.9.3.0-infineon-1.0/bin/../lib/gcc/tricore/4.9.4/tc161\libgcc.a(_unpack_sf.o)
 .data          0x0000000000000000        0x0 c:/hightec/toolchains/tricore/v4.9.3.0-infineon-1.0/bin/../lib/gcc/tricore/4.9.4/tc161\libgcc.a(_unpack_sf.o)
 .bss           0x0000000000000000        0x0 c:/hightec/toolchains/tricore/v4.9.3.0-infineon-1.0/bin/../lib/gcc/tricore/4.9.4/tc161\libgcc.a(_unpack_sf.o)
 .text          0x0000000000000000        0x0 c:/hightec/toolchains/tricore/v4.9.3.0-infineon-1.0/bin/../lib/gcc/tricore/4.9.4/tc161\libgcc.a(_make_sf.o)
 .data          0x0000000000000000        0x0 c:/hightec/toolchains/tricore/v4.9.3.0-infineon-1.0/bin/../lib/gcc/tricore/4.9.4/tc161\libgcc.a(_make_sf.o)
 .bss           0x0000000000000000        0x0 c:/hightec/toolchains/tricore/v4.9.3.0-infineon-1.0/bin/../lib/gcc/tricore/4.9.4/tc161\libgcc.a(_make_sf.o)
 .text          0x0000000000000000        0x0 c:/hightec/toolchains/tricore/v4.9.3.0-infineon-1.0/bin/../lib/gcc/tricore/4.9.4/tc161\libgcc.a(_pack_df.o)
 .data          0x0000000000000000        0x0 c:/hightec/toolchains/tricore/v4.9.3.0-infineon-1.0/bin/../lib/gcc/tricore/4.9.4/tc161\libgcc.a(_pack_df.o)
 .bss           0x0000000000000000        0x0 c:/hightec/toolchains/tricore/v4.9.3.0-infineon-1.0/bin/../lib/gcc/tricore/4.9.4/tc161\libgcc.a(_pack_df.o)
 .text          0x0000000000000000        0x0 c:/hightec/toolchains/tricore/v4.9.3.0-infineon-1.0/bin/../lib/gcc/tricore/4.9.4/tc161\libgcc.a(_unpack_df.o)
 .data          0x0000000000000000        0x0 c:/hightec/toolchains/tricore/v4.9.3.0-infineon-1.0/bin/../lib/gcc/tricore/4.9.4/tc161\libgcc.a(_unpack_df.o)
 .bss           0x0000000000000000        0x0 c:/hightec/toolchains/tricore/v4.9.3.0-infineon-1.0/bin/../lib/gcc/tricore/4.9.4/tc161\libgcc.a(_unpack_df.o)
 .text          0x0000000000000000        0x0 c:/hightec/toolchains/tricore/v4.9.3.0-infineon-1.0/bin/../lib/gcc/tricore/4.9.4/tc161\libgcc.a(_fpcmp_parts_df.o)
 .data          0x0000000000000000        0x0 c:/hightec/toolchains/tricore/v4.9.3.0-infineon-1.0/bin/../lib/gcc/tricore/4.9.4/tc161\libgcc.a(_fpcmp_parts_df.o)
 .bss           0x0000000000000000        0x0 c:/hightec/toolchains/tricore/v4.9.3.0-infineon-1.0/bin/../lib/gcc/tricore/4.9.4/tc161\libgcc.a(_fpcmp_parts_df.o)
 .text          0x0000000000000000        0x0 c:/hightec/toolchains/tricore/v4.9.3.0-infineon-1.0/bin/../lib/gcc/tricore/4.9.4/tc161\libgcc.a(udiv6432.o)
 .data          0x0000000000000000        0x0 c:/hightec/toolchains/tricore/v4.9.3.0-infineon-1.0/bin/../lib/gcc/tricore/4.9.4/tc161\libgcc.a(udiv6432.o)
 .bss           0x0000000000000000        0x0 c:/hightec/toolchains/tricore/v4.9.3.0-infineon-1.0/bin/../lib/gcc/tricore/4.9.4/tc161\libgcc.a(udiv6432.o)
 .text          0x0000000000000000        0x0 c:/hightec/toolchains/tricore/v4.9.3.0-infineon-1.0/bin/../lib/gcc/tricore/4.9.4/tc161\libgcc.a(_pack_sf.o)
 .data          0x0000000000000000        0x0 c:/hightec/toolchains/tricore/v4.9.3.0-infineon-1.0/bin/../lib/gcc/tricore/4.9.4/tc161\libgcc.a(_pack_sf.o)
 .bss           0x0000000000000000        0x0 c:/hightec/toolchains/tricore/v4.9.3.0-infineon-1.0/bin/../lib/gcc/tricore/4.9.4/tc161\libgcc.a(_pack_sf.o)
 .text          0x0000000000000000        0x0 c:/hightec/toolchains/tricore/v4.9.3.0-infineon-1.0/bin/../lib/gcc/tricore/4.9.4/../../../../tricore/lib/tc161\libc.a(lib_a-malloc.o)
 .data          0x0000000000000000        0x0 c:/hightec/toolchains/tricore/v4.9.3.0-infineon-1.0/bin/../lib/gcc/tricore/4.9.4/../../../../tricore/lib/tc161\libc.a(lib_a-malloc.o)
 .bss           0x0000000000000000        0x0 c:/hightec/toolchains/tricore/v4.9.3.0-infineon-1.0/bin/../lib/gcc/tricore/4.9.4/../../../../tricore/lib/tc161\libc.a(lib_a-malloc.o)
 .text          0x0000000000000000        0x0 c:/hightec/toolchains/tricore/v4.9.3.0-infineon-1.0/bin/../lib/gcc/tricore/4.9.4/../../../../tricore/lib/tc161\libc.a(lib_a-mallocr.o)
 .text          0x0000000000000000        0x0 c:/hightec/toolchains/tricore/v4.9.3.0-infineon-1.0/bin/../lib/gcc/tricore/4.9.4/../../../../tricore/lib/tc161\libc.a(lib_a-mlock.o)
 .data          0x0000000000000000        0x0 c:/hightec/toolchains/tricore/v4.9.3.0-infineon-1.0/bin/../lib/gcc/tricore/4.9.4/../../../../tricore/lib/tc161\libc.a(lib_a-mlock.o)
 .bss           0x0000000000000000        0x0 c:/hightec/toolchains/tricore/v4.9.3.0-infineon-1.0/bin/../lib/gcc/tricore/4.9.4/../../../../tricore/lib/tc161\libc.a(lib_a-mlock.o)
 .text          0x0000000000000000        0x0 c:/hightec/toolchains/tricore/v4.9.3.0-infineon-1.0/bin/../lib/gcc/tricore/4.9.4/../../../../tricore/lib/tc161\libc.a(lib_a-sbrkr.o)
 .data          0x0000000000000000        0x0 c:/hightec/toolchains/tricore/v4.9.3.0-infineon-1.0/bin/../lib/gcc/tricore/4.9.4/../../../../tricore/lib/tc161\libc.a(lib_a-sbrkr.o)
 .bss           0x0000000000000000        0x0 c:/hightec/toolchains/tricore/v4.9.3.0-infineon-1.0/bin/../lib/gcc/tricore/4.9.4/../../../../tricore/lib/tc161\libc.a(lib_a-sbrkr.o)
 .text          0x0000000000000000        0x0 c:/hightec/toolchains/tricore/v4.9.3.0-infineon-1.0/bin/../lib/gcc/tricore/4.9.4/../../../../tricore/lib/tc161\libc.a(lib_a-strlen.o)
 .data          0x0000000000000000        0x0 c:/hightec/toolchains/tricore/v4.9.3.0-infineon-1.0/bin/../lib/gcc/tricore/4.9.4/../../../../tricore/lib/tc161\libc.a(lib_a-strlen.o)
 .bss           0x0000000000000000        0x0 c:/hightec/toolchains/tricore/v4.9.3.0-infineon-1.0/bin/../lib/gcc/tricore/4.9.4/../../../../tricore/lib/tc161\libc.a(lib_a-strlen.o)
 .text          0x0000000000000000        0x0 c:/hightec/toolchains/tricore/v4.9.3.0-infineon-1.0/bin/../lib/gcc/tricore/4.9.4/../../../../tricore/lib/tc161\libc.a(lib_a-vsnprintf.o)
 .data          0x0000000000000000        0x0 c:/hightec/toolchains/tricore/v4.9.3.0-infineon-1.0/bin/../lib/gcc/tricore/4.9.4/../../../../tricore/lib/tc161\libc.a(lib_a-vsnprintf.o)
 .bss           0x0000000000000000        0x0 c:/hightec/toolchains/tricore/v4.9.3.0-infineon-1.0/bin/../lib/gcc/tricore/4.9.4/../../../../tricore/lib/tc161\libc.a(lib_a-vsnprintf.o)
 .text          0x0000000000000000        0x0 c:/hightec/toolchains/tricore/v4.9.3.0-infineon-1.0/bin/../lib/gcc/tricore/4.9.4/../../../../tricore/lib/tc161\libc.a(lib_a-vsprintf.o)
 .data          0x0000000000000000        0x0 c:/hightec/toolchains/tricore/v4.9.3.0-infineon-1.0/bin/../lib/gcc/tricore/4.9.4/../../../../tricore/lib/tc161\libc.a(lib_a-vsprintf.o)
 .bss           0x0000000000000000        0x0 c:/hightec/toolchains/tricore/v4.9.3.0-infineon-1.0/bin/../lib/gcc/tricore/4.9.4/../../../../tricore/lib/tc161\libc.a(lib_a-vsprintf.o)
 .text._vsprintf_r
                0x0000000000000000       0x28 c:/hightec/toolchains/tricore/v4.9.3.0-infineon-1.0/bin/../lib/gcc/tricore/4.9.4/../../../../tricore/lib/tc161\libc.a(lib_a-vsprintf.o)
 .text.vsprintf
                0x0000000000000000       0x16 c:/hightec/toolchains/tricore/v4.9.3.0-infineon-1.0/bin/../lib/gcc/tricore/4.9.4/../../../../tricore/lib/tc161\libc.a(lib_a-vsprintf.o)
 .text          0x0000000000000000        0x0 c:/hightec/toolchains/tricore/v4.9.3.0-infineon-1.0/bin/../lib/gcc/tricore/4.9.4/../../../../tricore/lib/tc161\libc.a(lib_a-freer.o)
 .data          0x0000000000000000        0x0 c:/hightec/toolchains/tricore/v4.9.3.0-infineon-1.0/bin/../lib/gcc/tricore/4.9.4/../../../../tricore/lib/tc161\libc.a(lib_a-freer.o)
 .bss           0x0000000000000000        0x0 c:/hightec/toolchains/tricore/v4.9.3.0-infineon-1.0/bin/../lib/gcc/tricore/4.9.4/../../../../tricore/lib/tc161\libc.a(lib_a-freer.o)
 .text          0x0000000000000000        0x0 c:/hightec/toolchains/tricore/v4.9.3.0-infineon-1.0/bin/../lib/gcc/tricore/4.9.4/../../../../tricore/lib/tc161\libc.a(lib_a-impure.o)
 .bss           0x0000000000000000        0x0 c:/hightec/toolchains/tricore/v4.9.3.0-infineon-1.0/bin/../lib/gcc/tricore/4.9.4/../../../../tricore/lib/tc161\libc.a(lib_a-impure.o)
 .text          0x0000000000000000        0x0 c:/hightec/toolchains/tricore/v4.9.3.0-infineon-1.0/bin/../lib/gcc/tricore/4.9.4/../../../../tricore/lib/tc161\libc.a(lib_a-reent.o)
 .data          0x0000000000000000        0x0 c:/hightec/toolchains/tricore/v4.9.3.0-infineon-1.0/bin/../lib/gcc/tricore/4.9.4/../../../../tricore/lib/tc161\libc.a(lib_a-reent.o)
 .text.cleanup_glue
                0x0000000000000000       0x14 c:/hightec/toolchains/tricore/v4.9.3.0-infineon-1.0/bin/../lib/gcc/tricore/4.9.4/../../../../tricore/lib/tc161\libc.a(lib_a-reent.o)
 .text._reclaim_reent
                0x0000000000000000       0x8e c:/hightec/toolchains/tricore/v4.9.3.0-infineon-1.0/bin/../lib/gcc/tricore/4.9.4/../../../../tricore/lib/tc161\libc.a(lib_a-reent.o)
 .text._wrapup_reent
                0x0000000000000000       0x32 c:/hightec/toolchains/tricore/v4.9.3.0-infineon-1.0/bin/../lib/gcc/tricore/4.9.4/../../../../tricore/lib/tc161\libc.a(lib_a-reent.o)
 .text          0x0000000000000000        0x0 c:/hightec/toolchains/tricore/v4.9.3.0-infineon-1.0/bin/../lib/gcc/tricore/4.9.4/../../../../tricore/lib/tc161\libc.a(lib_a-svfprintf.o)
 .data          0x0000000000000000        0x0 c:/hightec/toolchains/tricore/v4.9.3.0-infineon-1.0/bin/../lib/gcc/tricore/4.9.4/../../../../tricore/lib/tc161\libc.a(lib_a-svfprintf.o)
 .bss           0x0000000000000000        0x0 c:/hightec/toolchains/tricore/v4.9.3.0-infineon-1.0/bin/../lib/gcc/tricore/4.9.4/../../../../tricore/lib/tc161\libc.a(lib_a-svfprintf.o)
 .text          0x0000000000000000        0x0 c:/hightec/toolchains/tricore/v4.9.3.0-infineon-1.0/bin/../lib/gcc/tricore/4.9.4/../../../../tricore/lib/tc161\libc.a(lib_a-dtoa.o)
 .data          0x0000000000000000        0x0 c:/hightec/toolchains/tricore/v4.9.3.0-infineon-1.0/bin/../lib/gcc/tricore/4.9.4/../../../../tricore/lib/tc161\libc.a(lib_a-dtoa.o)
 .bss           0x0000000000000000        0x0 c:/hightec/toolchains/tricore/v4.9.3.0-infineon-1.0/bin/../lib/gcc/tricore/4.9.4/../../../../tricore/lib/tc161\libc.a(lib_a-dtoa.o)
 .text          0x0000000000000000        0x0 c:/hightec/toolchains/tricore/v4.9.3.0-infineon-1.0/bin/../lib/gcc/tricore/4.9.4/../../../../tricore/lib/tc161\libc.a(lib_a-locale.o)
 .data          0x0000000000000000       0x48 c:/hightec/toolchains/tricore/v4.9.3.0-infineon-1.0/bin/../lib/gcc/tricore/4.9.4/../../../../tricore/lib/tc161\libc.a(lib_a-locale.o)
 .bss           0x0000000000000000       0x10 c:/hightec/toolchains/tricore/v4.9.3.0-infineon-1.0/bin/../lib/gcc/tricore/4.9.4/../../../../tricore/lib/tc161\libc.a(lib_a-locale.o)
 .text._setlocale_r
                0x0000000000000000       0x44 c:/hightec/toolchains/tricore/v4.9.3.0-infineon-1.0/bin/../lib/gcc/tricore/4.9.4/../../../../tricore/lib/tc161\libc.a(lib_a-locale.o)
 .text.__locale_charset
                0x0000000000000000        0xa c:/hightec/toolchains/tricore/v4.9.3.0-infineon-1.0/bin/../lib/gcc/tricore/4.9.4/../../../../tricore/lib/tc161\libc.a(lib_a-locale.o)
 .text.__locale_msgcharset
                0x0000000000000000        0xa c:/hightec/toolchains/tricore/v4.9.3.0-infineon-1.0/bin/../lib/gcc/tricore/4.9.4/../../../../tricore/lib/tc161\libc.a(lib_a-locale.o)
 .text.__locale_cjk_lang
                0x0000000000000000        0x4 c:/hightec/toolchains/tricore/v4.9.3.0-infineon-1.0/bin/../lib/gcc/tricore/4.9.4/../../../../tricore/lib/tc161\libc.a(lib_a-locale.o)
 .text.setlocale
                0x0000000000000000        0xe c:/hightec/toolchains/tricore/v4.9.3.0-infineon-1.0/bin/../lib/gcc/tricore/4.9.4/../../../../tricore/lib/tc161\libc.a(lib_a-locale.o)
 .text.localeconv
                0x0000000000000000        0xa c:/hightec/toolchains/tricore/v4.9.3.0-infineon-1.0/bin/../lib/gcc/tricore/4.9.4/../../../../tricore/lib/tc161\libc.a(lib_a-locale.o)
 .text          0x0000000000000000        0x0 c:/hightec/toolchains/tricore/v4.9.3.0-infineon-1.0/bin/../lib/gcc/tricore/4.9.4/../../../../tricore/lib/tc161\libc.a(lib_a-memchr.o)
 .data          0x0000000000000000        0x0 c:/hightec/toolchains/tricore/v4.9.3.0-infineon-1.0/bin/../lib/gcc/tricore/4.9.4/../../../../tricore/lib/tc161\libc.a(lib_a-memchr.o)
 .bss           0x0000000000000000        0x0 c:/hightec/toolchains/tricore/v4.9.3.0-infineon-1.0/bin/../lib/gcc/tricore/4.9.4/../../../../tricore/lib/tc161\libc.a(lib_a-memchr.o)
 .text          0x0000000000000000        0x0 c:/hightec/toolchains/tricore/v4.9.3.0-infineon-1.0/bin/../lib/gcc/tricore/4.9.4/../../../../tricore/lib/tc161\libc.a(lib_a-memcpy.o)
 .data          0x0000000000000000        0x0 c:/hightec/toolchains/tricore/v4.9.3.0-infineon-1.0/bin/../lib/gcc/tricore/4.9.4/../../../../tricore/lib/tc161\libc.a(lib_a-memcpy.o)
 .bss           0x0000000000000000        0x0 c:/hightec/toolchains/tricore/v4.9.3.0-infineon-1.0/bin/../lib/gcc/tricore/4.9.4/../../../../tricore/lib/tc161\libc.a(lib_a-memcpy.o)
 .text          0x0000000000000000        0x0 c:/hightec/toolchains/tricore/v4.9.3.0-infineon-1.0/bin/../lib/gcc/tricore/4.9.4/../../../../tricore/lib/tc161\libc.a(lib_a-mprec.o)
 .data          0x0000000000000000        0x0 c:/hightec/toolchains/tricore/v4.9.3.0-infineon-1.0/bin/../lib/gcc/tricore/4.9.4/../../../../tricore/lib/tc161\libc.a(lib_a-mprec.o)
 .bss           0x0000000000000000        0x0 c:/hightec/toolchains/tricore/v4.9.3.0-infineon-1.0/bin/../lib/gcc/tricore/4.9.4/../../../../tricore/lib/tc161\libc.a(lib_a-mprec.o)
 .text.__s2b    0x0000000000000000       0x98 c:/hightec/toolchains/tricore/v4.9.3.0-infineon-1.0/bin/../lib/gcc/tricore/4.9.4/../../../../tricore/lib/tc161\libc.a(lib_a-mprec.o)
 .text.__ulp    0x0000000000000000       0x42 c:/hightec/toolchains/tricore/v4.9.3.0-infineon-1.0/bin/../lib/gcc/tricore/4.9.4/../../../../tricore/lib/tc161\libc.a(lib_a-mprec.o)
 .text.__b2d    0x0000000000000000       0xbc c:/hightec/toolchains/tricore/v4.9.3.0-infineon-1.0/bin/../lib/gcc/tricore/4.9.4/../../../../tricore/lib/tc161\libc.a(lib_a-mprec.o)
 .text.__ratio  0x0000000000000000       0x4e c:/hightec/toolchains/tricore/v4.9.3.0-infineon-1.0/bin/../lib/gcc/tricore/4.9.4/../../../../tricore/lib/tc161\libc.a(lib_a-mprec.o)
 .text._mprec_log10
                0x0000000000000000       0x30 c:/hightec/toolchains/tricore/v4.9.3.0-infineon-1.0/bin/../lib/gcc/tricore/4.9.4/../../../../tricore/lib/tc161\libc.a(lib_a-mprec.o)
 .text.__copybits
                0x0000000000000000       0x3c c:/hightec/toolchains/tricore/v4.9.3.0-infineon-1.0/bin/../lib/gcc/tricore/4.9.4/../../../../tricore/lib/tc161\libc.a(lib_a-mprec.o)
 .text.__any_on
                0x0000000000000000       0x52 c:/hightec/toolchains/tricore/v4.9.3.0-infineon-1.0/bin/../lib/gcc/tricore/4.9.4/../../../../tricore/lib/tc161\libc.a(lib_a-mprec.o)
 .text          0x0000000000000000        0x0 c:/hightec/toolchains/tricore/v4.9.3.0-infineon-1.0/bin/../lib/gcc/tricore/4.9.4/../../../../tricore/lib/tc161\libc.a(lib_a-s_fpclassify.o)
 .data          0x0000000000000000        0x0 c:/hightec/toolchains/tricore/v4.9.3.0-infineon-1.0/bin/../lib/gcc/tricore/4.9.4/../../../../tricore/lib/tc161\libc.a(lib_a-s_fpclassify.o)
 .bss           0x0000000000000000        0x0 c:/hightec/toolchains/tricore/v4.9.3.0-infineon-1.0/bin/../lib/gcc/tricore/4.9.4/../../../../tricore/lib/tc161\libc.a(lib_a-s_fpclassify.o)
 .text          0x0000000000000000        0x0 c:/hightec/toolchains/tricore/v4.9.3.0-infineon-1.0/bin/../lib/gcc/tricore/4.9.4/../../../../tricore/lib/tc161\libc.a(lib_a-strcmp.o)
 .data          0x0000000000000000        0x0 c:/hightec/toolchains/tricore/v4.9.3.0-infineon-1.0/bin/../lib/gcc/tricore/4.9.4/../../../../tricore/lib/tc161\libc.a(lib_a-strcmp.o)
 .bss           0x0000000000000000        0x0 c:/hightec/toolchains/tricore/v4.9.3.0-infineon-1.0/bin/../lib/gcc/tricore/4.9.4/../../../../tricore/lib/tc161\libc.a(lib_a-strcmp.o)
 .text.strcmp   0x0000000000000000       0x1c c:/hightec/toolchains/tricore/v4.9.3.0-infineon-1.0/bin/../lib/gcc/tricore/4.9.4/../../../../tricore/lib/tc161\libc.a(lib_a-strcmp.o)
 .text          0x0000000000000000        0x0 c:/hightec/toolchains/tricore/v4.9.3.0-infineon-1.0/bin/../lib/gcc/tricore/4.9.4/../../../../tricore/lib/tc161\libc.a(lib_a-svfiprintf.o)
 .data          0x0000000000000000        0x0 c:/hightec/toolchains/tricore/v4.9.3.0-infineon-1.0/bin/../lib/gcc/tricore/4.9.4/../../../../tricore/lib/tc161\libc.a(lib_a-svfiprintf.o)
 .bss           0x0000000000000000        0x0 c:/hightec/toolchains/tricore/v4.9.3.0-infineon-1.0/bin/../lib/gcc/tricore/4.9.4/../../../../tricore/lib/tc161\libc.a(lib_a-svfiprintf.o)
 .rodata        0x0000000000000000       0x42 c:/hightec/toolchains/tricore/v4.9.3.0-infineon-1.0/bin/../lib/gcc/tricore/4.9.4/../../../../tricore/lib/tc161\libc.a(lib_a-svfiprintf.o)
 .text._svfiprintf_r
                0x0000000000000000      0x940 c:/hightec/toolchains/tricore/v4.9.3.0-infineon-1.0/bin/../lib/gcc/tricore/4.9.4/../../../../tricore/lib/tc161\libc.a(lib_a-svfiprintf.o)
 .text          0x0000000000000000        0x0 c:/hightec/toolchains/tricore/v4.9.3.0-infineon-1.0/bin/../lib/gcc/tricore/4.9.4/../../../../tricore/lib/tc161\libc.a(lib_a-callocr.o)
 .data          0x0000000000000000        0x0 c:/hightec/toolchains/tricore/v4.9.3.0-infineon-1.0/bin/../lib/gcc/tricore/4.9.4/../../../../tricore/lib/tc161\libc.a(lib_a-callocr.o)
 .bss           0x0000000000000000        0x0 c:/hightec/toolchains/tricore/v4.9.3.0-infineon-1.0/bin/../lib/gcc/tricore/4.9.4/../../../../tricore/lib/tc161\libc.a(lib_a-callocr.o)
 .text          0x0000000000000000        0x0 c:/hightec/toolchains/tricore/v4.9.3.0-infineon-1.0/bin/../lib/gcc/tricore/4.9.4/../../../../tricore/lib/tc161\libc.a(lib_a-memmove.o)
 .data          0x0000000000000000        0x0 c:/hightec/toolchains/tricore/v4.9.3.0-infineon-1.0/bin/../lib/gcc/tricore/4.9.4/../../../../tricore/lib/tc161\libc.a(lib_a-memmove.o)
 .bss           0x0000000000000000        0x0 c:/hightec/toolchains/tricore/v4.9.3.0-infineon-1.0/bin/../lib/gcc/tricore/4.9.4/../../../../tricore/lib/tc161\libc.a(lib_a-memmove.o)
 .text          0x0000000000000000        0x0 c:/hightec/toolchains/tricore/v4.9.3.0-infineon-1.0/bin/../lib/gcc/tricore/4.9.4/../../../../tricore/lib/tc161\libc.a(lib_a-memset.o)
 .data          0x0000000000000000        0x0 c:/hightec/toolchains/tricore/v4.9.3.0-infineon-1.0/bin/../lib/gcc/tricore/4.9.4/../../../../tricore/lib/tc161\libc.a(lib_a-memset.o)
 .bss           0x0000000000000000        0x0 c:/hightec/toolchains/tricore/v4.9.3.0-infineon-1.0/bin/../lib/gcc/tricore/4.9.4/../../../../tricore/lib/tc161\libc.a(lib_a-memset.o)
 .text          0x0000000000000000        0x0 c:/hightec/toolchains/tricore/v4.9.3.0-infineon-1.0/bin/../lib/gcc/tricore/4.9.4/../../../../tricore/lib/tc161\libc.a(lib_a-reallocr.o)
 .data          0x0000000000000000        0x0 c:/hightec/toolchains/tricore/v4.9.3.0-infineon-1.0/bin/../lib/gcc/tricore/4.9.4/../../../../tricore/lib/tc161\libc.a(lib_a-reallocr.o)
 .bss           0x0000000000000000        0x0 c:/hightec/toolchains/tricore/v4.9.3.0-infineon-1.0/bin/../lib/gcc/tricore/4.9.4/../../../../tricore/lib/tc161\libc.a(lib_a-reallocr.o)
 .text          0x0000000000000000        0x0 c:/hightec/toolchains/tricore/v4.9.3.0-infineon-1.0/bin/../lib/gcc/tricore/4.9.4/../../../../tricore/lib/tc161\libos.a(libos_exit.o)
 .data          0x0000000000000000        0x0 c:/hightec/toolchains/tricore/v4.9.3.0-infineon-1.0/bin/../lib/gcc/tricore/4.9.4/../../../../tricore/lib/tc161\libos.a(libos_exit.o)
 .bss           0x0000000000000000        0x8 c:/hightec/toolchains/tricore/v4.9.3.0-infineon-1.0/bin/../lib/gcc/tricore/4.9.4/../../../../tricore/lib/tc161\libos.a(libos_exit.o)
 .text          0x0000000000000000        0x0 c:/hightec/toolchains/tricore/v4.9.3.0-infineon-1.0/bin/../lib/gcc/tricore/4.9.4/../../../../tricore/lib/tc161\libos.a(libos_sbrk.o)
 .bss           0x0000000000000000        0x0 c:/hightec/toolchains/tricore/v4.9.3.0-infineon-1.0/bin/../lib/gcc/tricore/4.9.4/../../../../tricore/lib/tc161\libos.a(libos_sbrk.o)
 .text          0x0000000000000000        0x0 c:/hightec/toolchains/tricore/v4.9.3.0-infineon-1.0/bin/../lib/gcc/tricore/4.9.4/../../../../tricore/lib/tc161\libos.a(libos.o)
 .data          0x0000000000000000       0x10 c:/hightec/toolchains/tricore/v4.9.3.0-infineon-1.0/bin/../lib/gcc/tricore/4.9.4/../../../../tricore/lib/tc161\libos.a(libos.o)
 .text.getpid   0x0000000000000000        0x4 c:/hightec/toolchains/tricore/v4.9.3.0-infineon-1.0/bin/../lib/gcc/tricore/4.9.4/../../../../tricore/lib/tc161\libos.a(libos.o)
 .text.isatty   0x0000000000000000        0x6 c:/hightec/toolchains/tricore/v4.9.3.0-infineon-1.0/bin/../lib/gcc/tricore/4.9.4/../../../../tricore/lib/tc161\libos.a(libos.o)
 .text.fork     0x0000000000000000        0x4 c:/hightec/toolchains/tricore/v4.9.3.0-infineon-1.0/bin/../lib/gcc/tricore/4.9.4/../../../../tricore/lib/tc161\libos.a(libos.o)
 .text.wait     0x0000000000000000        0x4 c:/hightec/toolchains/tricore/v4.9.3.0-infineon-1.0/bin/../lib/gcc/tricore/4.9.4/../../../../tricore/lib/tc161\libos.a(libos.o)
 .text.kill     0x0000000000000000        0x4 c:/hightec/toolchains/tricore/v4.9.3.0-infineon-1.0/bin/../lib/gcc/tricore/4.9.4/../../../../tricore/lib/tc161\libos.a(libos.o)
 .text.link     0x0000000000000000        0x4 c:/hightec/toolchains/tricore/v4.9.3.0-infineon-1.0/bin/../lib/gcc/tricore/4.9.4/../../../../tricore/lib/tc161\libos.a(libos.o)
 .text.stat     0x0000000000000000        0x4 c:/hightec/toolchains/tricore/v4.9.3.0-infineon-1.0/bin/../lib/gcc/tricore/4.9.4/../../../../tricore/lib/tc161\libos.a(libos.o)
 .text.fstat    0x0000000000000000       0x20 c:/hightec/toolchains/tricore/v4.9.3.0-infineon-1.0/bin/../lib/gcc/tricore/4.9.4/../../../../tricore/lib/tc161\libos.a(libos.o)
 .text.gettimeofday
                0x0000000000000000        0x4 c:/hightec/toolchains/tricore/v4.9.3.0-infineon-1.0/bin/../lib/gcc/tricore/4.9.4/../../../../tricore/lib/tc161\libos.a(libos.o)
 .rodata        0x0000000000000000        0x1 c:/hightec/toolchains/tricore/v4.9.3.0-infineon-1.0/bin/../lib/gcc/tricore/4.9.4/../../../../tricore/lib/tc161\libos.a(libos.o)
 .text          0x0000000000000000        0x0 c:/hightec/toolchains/tricore/v4.9.3.0-infineon-1.0/bin/../lib/gcc/tricore/4.9.4/../../../../tricore/lib/tc161\libos.a(libos_abort.o)
 .data          0x0000000000000000        0x0 c:/hightec/toolchains/tricore/v4.9.3.0-infineon-1.0/bin/../lib/gcc/tricore/4.9.4/../../../../tricore/lib/tc161\libos.a(libos_abort.o)
 .bss           0x0000000000000000        0x0 c:/hightec/toolchains/tricore/v4.9.3.0-infineon-1.0/bin/../lib/gcc/tricore/4.9.4/../../../../tricore/lib/tc161\libos.a(libos_abort.o)
 .text          0x0000000000000000        0x0 c:/hightec/toolchains/tricore/v4.9.3.0-infineon-1.0/bin/../lib/gcc/tricore/4.9.4/../../../../tricore/lib/tc161\libm.a(lib_a-s_atan.o)
 .data          0x0000000000000000        0x0 c:/hightec/toolchains/tricore/v4.9.3.0-infineon-1.0/bin/../lib/gcc/tricore/4.9.4/../../../../tricore/lib/tc161\libm.a(lib_a-s_atan.o)
 .bss           0x0000000000000000        0x0 c:/hightec/toolchains/tricore/v4.9.3.0-infineon-1.0/bin/../lib/gcc/tricore/4.9.4/../../../../tricore/lib/tc161\libm.a(lib_a-s_atan.o)
 .text          0x0000000000000000        0x0 c:/hightec/toolchains/tricore/v4.9.3.0-infineon-1.0/bin/../lib/gcc/tricore/4.9.4/../../../../tricore/lib/tc161\libm.a(lib_a-s_fabs.o)
 .data          0x0000000000000000        0x0 c:/hightec/toolchains/tricore/v4.9.3.0-infineon-1.0/bin/../lib/gcc/tricore/4.9.4/../../../../tricore/lib/tc161\libm.a(lib_a-s_fabs.o)
 .bss           0x0000000000000000        0x0 c:/hightec/toolchains/tricore/v4.9.3.0-infineon-1.0/bin/../lib/gcc/tricore/4.9.4/../../../../tricore/lib/tc161\libm.a(lib_a-s_fabs.o)
 .text          0x0000000000000000        0x0 c:/hightec/toolchains/tricore/v4.9.3.0-infineon-1.0/bin/../lib/gcc/tricore/4.9.4/../../../../tricore/lib/tc161\libm.a(lib_a-wf_sincos.o)
 .data          0x0000000000000000        0x0 c:/hightec/toolchains/tricore/v4.9.3.0-infineon-1.0/bin/../lib/gcc/tricore/4.9.4/../../../../tricore/lib/tc161\libm.a(lib_a-wf_sincos.o)
 .bss           0x0000000000000000        0x0 c:/hightec/toolchains/tricore/v4.9.3.0-infineon-1.0/bin/../lib/gcc/tricore/4.9.4/../../../../tricore/lib/tc161\libm.a(lib_a-wf_sincos.o)
 .text          0x0000000000000000        0x0 c:/hightec/toolchains/tricore/v4.9.3.0-infineon-1.0/bin/../lib/gcc/tricore/4.9.4/../../../../tricore/lib/tc161\libm.a(lib_a-sf_cos.o)
 .data          0x0000000000000000        0x0 c:/hightec/toolchains/tricore/v4.9.3.0-infineon-1.0/bin/../lib/gcc/tricore/4.9.4/../../../../tricore/lib/tc161\libm.a(lib_a-sf_cos.o)
 .bss           0x0000000000000000        0x0 c:/hightec/toolchains/tricore/v4.9.3.0-infineon-1.0/bin/../lib/gcc/tricore/4.9.4/../../../../tricore/lib/tc161\libm.a(lib_a-sf_cos.o)
 .text          0x0000000000000000        0x0 c:/hightec/toolchains/tricore/v4.9.3.0-infineon-1.0/bin/../lib/gcc/tricore/4.9.4/../../../../tricore/lib/tc161\libm.a(lib_a-sf_sin.o)
 .data          0x0000000000000000        0x0 c:/hightec/toolchains/tricore/v4.9.3.0-infineon-1.0/bin/../lib/gcc/tricore/4.9.4/../../../../tricore/lib/tc161\libm.a(lib_a-sf_sin.o)
 .bss           0x0000000000000000        0x0 c:/hightec/toolchains/tricore/v4.9.3.0-infineon-1.0/bin/../lib/gcc/tricore/4.9.4/../../../../tricore/lib/tc161\libm.a(lib_a-sf_sin.o)
 .text          0x0000000000000000        0x0 c:/hightec/toolchains/tricore/v4.9.3.0-infineon-1.0/bin/../lib/gcc/tricore/4.9.4/../../../../tricore/lib/tc161\libm.a(lib_a-ef_rem_pio2.o)
 .data          0x0000000000000000        0x0 c:/hightec/toolchains/tricore/v4.9.3.0-infineon-1.0/bin/../lib/gcc/tricore/4.9.4/../../../../tricore/lib/tc161\libm.a(lib_a-ef_rem_pio2.o)
 .bss           0x0000000000000000        0x0 c:/hightec/toolchains/tricore/v4.9.3.0-infineon-1.0/bin/../lib/gcc/tricore/4.9.4/../../../../tricore/lib/tc161\libm.a(lib_a-ef_rem_pio2.o)
 .text          0x0000000000000000        0x0 c:/hightec/toolchains/tricore/v4.9.3.0-infineon-1.0/bin/../lib/gcc/tricore/4.9.4/../../../../tricore/lib/tc161\libm.a(lib_a-kf_cos.o)
 .data          0x0000000000000000        0x0 c:/hightec/toolchains/tricore/v4.9.3.0-infineon-1.0/bin/../lib/gcc/tricore/4.9.4/../../../../tricore/lib/tc161\libm.a(lib_a-kf_cos.o)
 .bss           0x0000000000000000        0x0 c:/hightec/toolchains/tricore/v4.9.3.0-infineon-1.0/bin/../lib/gcc/tricore/4.9.4/../../../../tricore/lib/tc161\libm.a(lib_a-kf_cos.o)
 .text          0x0000000000000000        0x0 c:/hightec/toolchains/tricore/v4.9.3.0-infineon-1.0/bin/../lib/gcc/tricore/4.9.4/../../../../tricore/lib/tc161\libm.a(lib_a-kf_rem_pio2.o)
 .data          0x0000000000000000        0x0 c:/hightec/toolchains/tricore/v4.9.3.0-infineon-1.0/bin/../lib/gcc/tricore/4.9.4/../../../../tricore/lib/tc161\libm.a(lib_a-kf_rem_pio2.o)
 .bss           0x0000000000000000        0x0 c:/hightec/toolchains/tricore/v4.9.3.0-infineon-1.0/bin/../lib/gcc/tricore/4.9.4/../../../../tricore/lib/tc161\libm.a(lib_a-kf_rem_pio2.o)
 .text          0x0000000000000000        0x0 c:/hightec/toolchains/tricore/v4.9.3.0-infineon-1.0/bin/../lib/gcc/tricore/4.9.4/../../../../tricore/lib/tc161\libm.a(lib_a-kf_sin.o)
 .data          0x0000000000000000        0x0 c:/hightec/toolchains/tricore/v4.9.3.0-infineon-1.0/bin/../lib/gcc/tricore/4.9.4/../../../../tricore/lib/tc161\libm.a(lib_a-kf_sin.o)
 .bss           0x0000000000000000        0x0 c:/hightec/toolchains/tricore/v4.9.3.0-infineon-1.0/bin/../lib/gcc/tricore/4.9.4/../../../../tricore/lib/tc161\libm.a(lib_a-kf_sin.o)
 .text          0x0000000000000000        0x0 c:/hightec/toolchains/tricore/v4.9.3.0-infineon-1.0/bin/../lib/gcc/tricore/4.9.4/../../../../tricore/lib/tc161\libm.a(lib_a-sf_fabs.o)
 .data          0x0000000000000000        0x0 c:/hightec/toolchains/tricore/v4.9.3.0-infineon-1.0/bin/../lib/gcc/tricore/4.9.4/../../../../tricore/lib/tc161\libm.a(lib_a-sf_fabs.o)
 .bss           0x0000000000000000        0x0 c:/hightec/toolchains/tricore/v4.9.3.0-infineon-1.0/bin/../lib/gcc/tricore/4.9.4/../../../../tricore/lib/tc161\libm.a(lib_a-sf_fabs.o)
 .text          0x0000000000000000        0x0 c:/hightec/toolchains/tricore/v4.9.3.0-infineon-1.0/bin/../lib/gcc/tricore/4.9.4/../../../../tricore/lib/tc161\libm.a(lib_a-sf_floor.o)
 .data          0x0000000000000000        0x0 c:/hightec/toolchains/tricore/v4.9.3.0-infineon-1.0/bin/../lib/gcc/tricore/4.9.4/../../../../tricore/lib/tc161\libm.a(lib_a-sf_floor.o)
 .bss           0x0000000000000000        0x0 c:/hightec/toolchains/tricore/v4.9.3.0-infineon-1.0/bin/../lib/gcc/tricore/4.9.4/../../../../tricore/lib/tc161\libm.a(lib_a-sf_floor.o)
 .text          0x0000000000000000        0x0 c:/hightec/toolchains/tricore/v4.9.3.0-infineon-1.0/bin/../lib/gcc/tricore/4.9.4/../../../../tricore/lib/tc161\libm.a(lib_a-sf_scalbn.o)
 .data          0x0000000000000000        0x0 c:/hightec/toolchains/tricore/v4.9.3.0-infineon-1.0/bin/../lib/gcc/tricore/4.9.4/../../../../tricore/lib/tc161\libm.a(lib_a-sf_scalbn.o)
 .bss           0x0000000000000000        0x0 c:/hightec/toolchains/tricore/v4.9.3.0-infineon-1.0/bin/../lib/gcc/tricore/4.9.4/../../../../tricore/lib/tc161\libm.a(lib_a-sf_scalbn.o)
 .text          0x0000000000000000        0x0 c:/hightec/toolchains/tricore/v4.9.3.0-infineon-1.0/bin/../lib/gcc/tricore/4.9.4/../../../../tricore/lib/tc161\libm.a(lib_a-sf_copysign.o)
 .data          0x0000000000000000        0x0 c:/hightec/toolchains/tricore/v4.9.3.0-infineon-1.0/bin/../lib/gcc/tricore/4.9.4/../../../../tricore/lib/tc161\libm.a(lib_a-sf_copysign.o)
 .bss           0x0000000000000000        0x0 c:/hightec/toolchains/tricore/v4.9.3.0-infineon-1.0/bin/../lib/gcc/tricore/4.9.4/../../../../tricore/lib/tc161\libm.a(lib_a-sf_copysign.o)
 .text          0x0000000000000000        0x0 c:/hightec/toolchains/tricore/v4.9.3.0-infineon-1.0/bin/../lib/gcc/tricore/4.9.4/tc161\libgcc.a(_eq_df.o)
 .data          0x0000000000000000        0x0 c:/hightec/toolchains/tricore/v4.9.3.0-infineon-1.0/bin/../lib/gcc/tricore/4.9.4/tc161\libgcc.a(_eq_df.o)
 .bss           0x0000000000000000        0x0 c:/hightec/toolchains/tricore/v4.9.3.0-infineon-1.0/bin/../lib/gcc/tricore/4.9.4/tc161\libgcc.a(_eq_df.o)
 .text          0x0000000000000000        0x0 c:/hightec/toolchains/tricore/v4.9.3.0-infineon-1.0/bin/../lib/gcc/tricore/4.9.4/tc161\libgcc.a(_ne_df.o)
 .data          0x0000000000000000        0x0 c:/hightec/toolchains/tricore/v4.9.3.0-infineon-1.0/bin/../lib/gcc/tricore/4.9.4/tc161\libgcc.a(_ne_df.o)
 .bss           0x0000000000000000        0x0 c:/hightec/toolchains/tricore/v4.9.3.0-infineon-1.0/bin/../lib/gcc/tricore/4.9.4/tc161\libgcc.a(_ne_df.o)
 .text          0x0000000000000000        0x0 c:/hightec/toolchains/tricore/v4.9.3.0-infineon-1.0/bin/../lib/gcc/tricore/4.9.4/tc161\libgcc.a(umoddi3.o)
 .data          0x0000000000000000        0x0 c:/hightec/toolchains/tricore/v4.9.3.0-infineon-1.0/bin/../lib/gcc/tricore/4.9.4/tc161\libgcc.a(umoddi3.o)
 .bss           0x0000000000000000        0x0 c:/hightec/toolchains/tricore/v4.9.3.0-infineon-1.0/bin/../lib/gcc/tricore/4.9.4/tc161\libgcc.a(umoddi3.o)

Memory Configuration

Name             Origin             Length             Used               Free               Attributes
DMI_DSPR2_local  0x00000000d0000000 0x000000000001e000         0x0000000000000000         0x000000000001e000 w !xpc2
DMI_DSPR2        0x0000000050000000 0x000000000001e000         0x000000000001dc00         0x0000000000000400 w !xpc2
PMI_PSPR2        0x0000000050100000 0x0000000000006000         0x0000000000000000         0x0000000000006000 xw !pc2
DMI_DSPR1_local  0x00000000d0000000 0x000000000001e000         0x0000000000000000         0x000000000001e000 w !xpc1
DMI_DSPR1        0x0000000060000000 0x000000000001e000         0x000000000001dc00         0x0000000000000400 w !xpc1
PMI_PSPR1        0x0000000060100000 0x0000000000006000         0x0000000000000000         0x0000000000006000 xw !pc1
DMI_DSPR0_local  0x00000000d0000000 0x000000000001c000         0x0000000000000000         0x000000000001c000 w !xpc0
DMI_DSPR0        0x0000000070000000 0x000000000001c000         0x000000000001bc00         0x0000000000000400 w !xpc0
PMI_PSPR0        0x0000000070100000 0x0000000000006000         0x0000000000000000         0x0000000000006000 xw !pc0
PMI_PSRAM_local  0x00000000c0000000 0x0000000000006000         0x0000000000000000         0x0000000000006000 xw !p
PMU_PFLASH       0x0000000080000000 0x0000000000400000         0x00000000000173a0         0x00000000003e8c60 xr !p
PMU_PFLASH_nc    0x00000000a0000000 0x0000000000400000         0x0000000000000000         0x0000000000400000 xr !p
PMU_DFLASH0      0x00000000af000000 0x0000000000104000         0x0000000000000000         0x0000000000104000 r !xp
PMU_DFLASH1      0x00000000af110000 0x0000000000010000         0x0000000000000000         0x0000000000010000 r !xp
LMU_SRAM         0x0000000090000000 0x0000000000008000         0x0000000000000000         0x0000000000008000 w !xp
LMU_SRAM_nc      0x00000000b0000000 0x0000000000008000         0x0000000000000000         0x0000000000008000 w !xp
EDMEM            0x000000009f000000 0x0000000000100000         0x0000000000000000         0x0000000000100000 w !xp
EDMEM_nc         0x00000000bf000000 0x0000000000100000         0x0000000000000000         0x0000000000100000 w !xp
BROM             0x000000008fff8000 0x0000000000008000         0x0000000000000000         0x0000000000008000 xr !p
*default*        0x0000000000000000 0xffffffffffffffff         0x0000000000000000         0xffffffffffffffff

List of aliases

DMI_DSPR0       : GLOBAL_RAM

Memory region maps:

CORE     Local Region   Global Region
CPU0     0xd0000000     0x70000000
CPU1     0xd0000000     0x60000000
CPU2     0xd0000000     0x50000000


Linker script and memory map

LOAD obj/asw.c.o
LOAD obj/bsw.c.o
LOAD obj/ee_applcfg.c.o
LOAD obj/hall_Driver.c.o
LOAD obj/illd/Libraries/iLLD/TC27D/Tricore/Gtm/Std/IfxGtm.c.o
LOAD obj/illd/Libraries/iLLD/TC27D/Tricore/Gtm/Std/IfxGtm_Cmu.c.o
LOAD obj/illd/Libraries/iLLD/TC27D/Tricore/Gtm/Std/IfxGtm_Dpll.c.o
LOAD obj/illd/Libraries/iLLD/TC27D/Tricore/Gtm/Std/IfxGtm_Tom.c.o
LOAD obj/illd/Libraries/iLLD/TC27D/Tricore/Gtm/Tom/Pwm/IfxGtm_Tom_Pwm.c.o
LOAD obj/illd/Libraries/iLLD/TC27D/Tricore/Vadc/std/IfxVadc.c.o
LOAD obj/illd/Libraries/iLLD/TC27D/Tricore/_Impl/IfxVadc_cfg.c.o
LOAD obj/illd/Libraries/iLLD/TC27D/Tricore/_PinMap/IfxGtm_PinMap.c.o
LOAD obj/illd/Libraries/iLLD/TC27D/Tricore/_PinMap/IfxPort_PinMap.c.o
LOAD obj/illd/src/Bsp.c.o
LOAD obj/illd/src/CompilerGnuc.c.o
LOAD obj/illd/src/IfxAsclin.c.o
LOAD obj/illd/src/IfxAsclin_Asc.c.o
LOAD obj/illd/src/IfxAsclin_PinMap.c.o
LOAD obj/illd/src/IfxAsclin_cfg.c.o
LOAD obj/illd/src/IfxCpu.c.o
LOAD obj/illd/src/IfxCpu_Irq.c.o
LOAD obj/illd/src/IfxCpu_cfg.c.o
LOAD obj/illd/src/IfxPort.c.o
LOAD obj/illd/src/IfxPort_cfg.c.o
LOAD obj/illd/src/IfxScuCcu.c.o
LOAD obj/illd/src/IfxScuEru.c.o
LOAD obj/illd/src/IfxScuWdt.c.o
LOAD obj/illd/src/IfxScu_PinMap.c.o
LOAD obj/illd/src/IfxScu_cfg.c.o
LOAD obj/illd/src/IfxSrc.c.o
LOAD obj/illd/src/IfxSrc_cfg.c.o
LOAD obj/illd/src/IfxStdIf_DPipe.c.o
LOAD obj/illd/src/IfxStm.c.o
LOAD obj/illd/src/IfxStm_cfg.c.o
LOAD obj/illd/src/IfxVadc_Adc.c.o
LOAD obj/illd/src/Ifx_CircularBuffer.c.o
LOAD obj/illd/src/Ifx_Fifo.c.o
LOAD obj/motor_driver.c.o
LOAD obj/shiparker_App.c.o
LOAD obj/steering_Pid.c.o
LOAD obj/uart_Driver.c.o
LOAD obj/ultrasonic_Driver.c.o
START GROUP
LOAD C:\Users\USER\Desktop\AUTODR~1\TC275\erika\lib\libee.a
END GROUP
LOAD c:/hightec/toolchains/tricore/v4.9.3.0-infineon-1.0/bin/../lib/gcc/tricore/4.9.4/tc161\libgcc.a
LOAD c:/hightec/toolchains/tricore/v4.9.3.0-infineon-1.0/bin/../lib/gcc/tricore/4.9.4/../../../../tricore/lib/tc161\libc.a
LOAD c:/hightec/toolchains/tricore/v4.9.3.0-infineon-1.0/bin/../lib/gcc/tricore/4.9.4/../../../../tricore/lib/tc161\libos.a
LOAD c:/hightec/toolchains/tricore/v4.9.3.0-infineon-1.0/bin/../lib/gcc/tricore/4.9.4/../../../../tricore/lib/tc161\libm.a
LOAD c:/hightec/toolchains/tricore/v4.9.3.0-infineon-1.0/bin/../lib/gcc/tricore/4.9.4/../../../../tricore/lib/tc161\libc.a
LOAD c:/hightec/toolchains/tricore/v4.9.3.0-infineon-1.0/bin/../lib/gcc/tricore/4.9.4/tc161\libgcc.a
                0x0000000000002700                __TRICORE_DERIVATE_MEMORY_MAP__ = 0x2700
                [0x0000000000002000]                __CSA_SIZE = DEFINED (__CSA_SIZE)?__CSA_SIZE:0x2000
                [0x0000000000000400]                __ISTACK_SIZE = DEFINED (__ISTACK_SIZE)?__ISTACK_SIZE:0x400
                [0x0000000000001000]                __USTACK_SIZE = DEFINED (__USTACK_SIZE)?__USTACK_SIZE:0x1000
                [0x0000000000000000]                __HEAP_SIZE = DEFINED (__HEAP_SIZE)?__HEAP_SIZE:0x0
                [0x0000000000002000]                __CSA0_SIZE = DEFINED (__CSA0_SIZE)?__CSA0_SIZE:__CSA_SIZE
                [0x0000000000000400]                __ISTACK0_SIZE = DEFINED (__ISTACK0_SIZE)?__ISTACK0_SIZE:__ISTACK_SIZE
                [0x0000000000001000]                __USTACK0_SIZE = DEFINED (__USTACK0_SIZE)?__USTACK0_SIZE:__USTACK_SIZE
                [0x0000000000002000]                __CSA1_SIZE = DEFINED (__CSA1_SIZE)?__CSA1_SIZE:__CSA_SIZE
                [0x0000000000000400]                __ISTACK1_SIZE = DEFINED (__ISTACK1_SIZE)?__ISTACK1_SIZE:__ISTACK_SIZE
                [0x0000000000001000]                __USTACK1_SIZE = DEFINED (__USTACK1_SIZE)?__USTACK1_SIZE:__USTACK_SIZE
                [0x0000000000002000]                __CSA2_SIZE = DEFINED (__CSA2_SIZE)?__CSA2_SIZE:__CSA_SIZE
                [0x0000000000000400]                __ISTACK2_SIZE = DEFINED (__ISTACK2_SIZE)?__ISTACK2_SIZE:__ISTACK_SIZE
                [0x0000000000001000]                __USTACK2_SIZE = DEFINED (__USTACK2_SIZE)?__USTACK2_SIZE:__USTACK_SIZE
                0x0000000050000000                __DSPR2_START = 0x50000000
                0x0000000060000000                __DSPR1_START = 0x60000000
                0x0000000070000000                __DSPR0_START = 0x70000000
                0x000000000001e000                __DSPR2_SIZE = 0x1e000
                0x000000000001e000                __DSPR1_SIZE = 0x1e000
                0x000000000001c000                __DSPR0_SIZE = 0x1c000
                0x0000000000019c00                __CSA0_OFFSET = ((__DSPR0_SIZE - 0x400) - __CSA0_SIZE)
                0x0000000000019700                __ISTACK0_OFFSET = ((__CSA0_OFFSET - 0x100) - __ISTACK0_SIZE)
                0x0000000000018600                __USTACK0_OFFSET = ((__ISTACK0_OFFSET - 0x100) - __USTACK0_SIZE)
                0x000000000001bc00                __CSA1_OFFSET = ((__DSPR1_SIZE - 0x400) - __CSA1_SIZE)
                0x000000000001b700                __ISTACK1_OFFSET = ((__CSA1_OFFSET - 0x100) - __ISTACK1_SIZE)
                0x000000000001a600                __USTACK1_OFFSET = ((__ISTACK1_OFFSET - 0x100) - __USTACK1_SIZE)
                0x000000000001bc00                __CSA2_OFFSET = ((__DSPR2_SIZE - 0x400) - __CSA2_SIZE)
                0x000000000001b700                __ISTACK2_OFFSET = ((__CSA2_OFFSET - 0x100) - __ISTACK2_SIZE)
                0x000000000001a600                __USTACK2_OFFSET = ((__ISTACK2_OFFSET - 0x100) - __USTACK2_SIZE)

.bmhd0          memory region -> PMU_PFLASH
                0x0000000080000000        0x0
                0x0000000080000000                BootModeHeader0 = .
 *(.bmhd0)

.bmhd1          memory region -> PMU_PFLASH
                0x0000000080020000        0x0
                0x0000000080020000                BootModeHeader1 = .
 *(.bmhd1)

.startup        memory region -> PMU_PFLASH
                0x0000000080000020        0x6
                0x0000000080000020                BootModeIndex = .
 *(.startup)
 .startup       0x0000000080000020        0x6 C:\Users\USER\Desktop\AUTODR~1\TC275\erika\lib\libee.a(ee_tc_cstart.c.o)
                0x0000000080000020                _start

.zrodata
 *(.zrodata)
 *(.zrodata.*)

.sdata2         memory region -> PMU_PFLASH
                0x0000000080000026        0x0
 *(.srodata)
 *(.srodata.*)
                0x0000000080008000                _SMALL_DATA2_ = SIZEOF (.sdata2)?(ADDR (.sdata2) + 0x8000):((ADDR (.sdata2) & 0xf0000000) + 0x8000)
                0x0000000080008000                __A1_MEM = _SMALL_DATA2_

.rodata         memory region -> PMU_PFLASH
                0x0000000080000028     0x4ea8
 *(.rodata)
 .rodata        0x0000000080000028        0x8 obj/asw.c.o
 .rodata        0x0000000080000030       0x60 obj/bsw.c.o
 .rodata        0x0000000080000090      0x2ec obj/ee_applcfg.c.o
                0x0000000080000090                osEE_kdb_var
                0x00000000800000b4                osEE_cdb_var
 .rodata        0x000000008000037c        0x5 obj/illd/Libraries/iLLD/TC27D/Tricore/Gtm/Std/IfxGtm_Tom.c.o
 .rodata        0x0000000080000381        0x6 obj/illd/Libraries/iLLD/TC27D/Tricore/Vadc/std/IfxVadc.c.o
 *fill*         0x0000000080000387        0x1 00
 .rodata        0x0000000080000388       0xa0 obj/illd/Libraries/iLLD/TC27D/Tricore/_Impl/IfxVadc_cfg.c.o
                0x0000000080000388                IfxVadc_cfg_srcAddresses
 .rodata        0x0000000080000428     0x35cc obj/illd/Libraries/iLLD/TC27D/Tricore/_PinMap/IfxGtm_PinMap.c.o
                0x0000000080000428                IfxGtm_TOM2_9_TOUT69_P20_13_OUT
                0x000000008000043c                IfxGtm_TOM2_9_TOUT52_P21_1_OUT
                0x0000000080000450                IfxGtm_TOM2_9_TOUT132_P22_6_OUT
                0x0000000080000464                IfxGtm_TOM2_9_TOUT103_P10_1_OUT
                0x0000000080000478                IfxGtm_TOM2_8_TOUT68_P20_12_OUT
                0x000000008000048c                IfxGtm_TOM2_8_TOUT51_P21_0_OUT
                0x00000000800004a0                IfxGtm_TOM2_8_TOUT131_P22_5_OUT
                0x00000000800004b4                IfxGtm_TOM2_8_TOUT127_P11_15_OUT
                0x00000000800004c8                IfxGtm_TOM2_8_TOUT109_P10_7_OUT
                0x00000000800004dc                IfxGtm_TOM2_7_TOUT93_P13_2_OUT
                0x00000000800004f0                IfxGtm_TOM2_7_TOUT64_P20_8_OUT
                0x0000000080000504                IfxGtm_TOM2_7_TOUT130_P22_4_OUT
                0x0000000080000518                IfxGtm_TOM2_7_TOUT126_P11_14_OUT
                0x000000008000052c                IfxGtm_TOM2_7_TOUT101_P11_12_OUT
                0x0000000080000540                IfxGtm_TOM2_6_TOUT92_P13_1_OUT
                0x0000000080000554                IfxGtm_TOM2_6_TOUT59_P20_0_OUT
                0x0000000080000568                IfxGtm_TOM2_6_TOUT125_P11_13_OUT
                0x000000008000057c                IfxGtm_TOM2_6_TOUT106_P10_4_OUT
                0x0000000080000590                IfxGtm_TOM2_6_TOUT100_P11_11_OUT
                0x00000000800005a4                IfxGtm_TOM2_5_TOUT99_P11_10_OUT
                0x00000000800005b8                IfxGtm_TOM2_5_TOUT91_P13_0_OUT
                0x00000000800005cc                IfxGtm_TOM2_5_TOUT58_P21_7_OUT
                0x00000000800005e0                IfxGtm_TOM2_5_TOUT124_P11_8_OUT
                0x00000000800005f4                IfxGtm_TOM2_4_TOUT98_P11_9_OUT
                0x0000000080000608                IfxGtm_TOM2_4_TOUT90_P14_10_OUT
                0x000000008000061c                IfxGtm_TOM2_4_TOUT61_P20_3_OUT
                0x0000000080000630                IfxGtm_TOM2_4_TOUT57_P21_6_OUT
                0x0000000080000644                IfxGtm_TOM2_4_TOUT50_P22_3_OUT
                0x0000000080000658                IfxGtm_TOM2_4_TOUT123_P11_7_OUT
                0x000000008000066c                IfxGtm_TOM2_3_TOUT97_P11_6_OUT
                0x0000000080000680                IfxGtm_TOM2_3_TOUT89_P14_9_OUT
                0x0000000080000694                IfxGtm_TOM2_3_TOUT60_P20_1_OUT
                0x00000000800006a8                IfxGtm_TOM2_3_TOUT56_P21_5_OUT
                0x00000000800006bc                IfxGtm_TOM2_3_TOUT49_P22_2_OUT
                0x00000000800006d0                IfxGtm_TOM2_3_TOUT122_P11_5_OUT
                0x00000000800006e4                IfxGtm_TOM2_2_TOUT96_P11_3_OUT
                0x00000000800006f8                IfxGtm_TOM2_2_TOUT88_P14_8_OUT
                0x000000008000070c                IfxGtm_TOM2_2_TOUT55_P21_4_OUT
                0x0000000080000720                IfxGtm_TOM2_2_TOUT46_P23_5_OUT
                0x0000000080000734                IfxGtm_TOM2_2_TOUT121_P11_4_OUT
                0x0000000080000748                IfxGtm_TOM2_1_TOUT95_P11_2_OUT
                0x000000008000075c                IfxGtm_TOM2_1_TOUT54_P21_3_OUT
                0x0000000080000770                IfxGtm_TOM2_1_TOUT47_P22_0_OUT
                0x0000000080000784                IfxGtm_TOM2_1_TOUT120_P11_1_OUT
                0x0000000080000798                IfxGtm_TOM2_15_TOUT75_P15_4_OUT
                0x00000000800007ac                IfxGtm_TOM2_15_TOUT67_P20_11_OUT
                0x00000000800007c0                IfxGtm_TOM2_15_TOUT149_P34_4_OUT
                0x00000000800007d4                IfxGtm_TOM2_14_TOUT74_P15_3_OUT
                0x00000000800007e8                IfxGtm_TOM2_14_TOUT66_P20_10_OUT
                0x00000000800007fc                IfxGtm_TOM2_14_TOUT36_P32_0_OUT
                0x0000000080000810                IfxGtm_TOM2_14_TOUT137_P22_11_OUT
                0x0000000080000824                IfxGtm_TOM2_13_TOUT73_P15_2_OUT
                0x0000000080000838                IfxGtm_TOM2_13_TOUT65_P20_9_OUT
                0x000000008000084c                IfxGtm_TOM2_13_TOUT35_P33_13_OUT
                0x0000000080000860                IfxGtm_TOM2_13_TOUT136_P22_10_OUT
                0x0000000080000874                IfxGtm_TOM2_13_TOUT110_P10_8_OUT
                0x0000000080000888                IfxGtm_TOM2_12_TOUT72_P15_1_OUT
                0x000000008000089c                IfxGtm_TOM2_12_TOUT34_P33_12_OUT
                0x00000000800008b0                IfxGtm_TOM2_12_TOUT135_P22_9_OUT
                0x00000000800008c4                IfxGtm_TOM2_12_TOUT102_P10_0_OUT
                0x00000000800008d8                IfxGtm_TOM2_11_TOUT71_P15_0_OUT
                0x00000000800008ec                IfxGtm_TOM2_11_TOUT63_P20_7_OUT
                0x0000000080000900                IfxGtm_TOM2_11_TOUT134_P22_8_OUT
                0x0000000080000914                IfxGtm_TOM2_11_TOUT108_P10_6_OUT
                0x0000000080000928                IfxGtm_TOM2_11_TOUT105_P10_3_OUT
                0x000000008000093c                IfxGtm_TOM2_10_TOUT70_P20_14_OUT
                0x0000000080000950                IfxGtm_TOM2_10_TOUT62_P20_6_OUT
                0x0000000080000964                IfxGtm_TOM2_10_TOUT133_P22_7_OUT
                0x0000000080000978                IfxGtm_TOM2_10_TOUT107_P10_5_OUT
                0x000000008000098c                IfxGtm_TOM2_10_TOUT104_P10_2_OUT
                0x00000000800009a0                IfxGtm_TOM2_0_TOUT94_P13_3_OUT
                0x00000000800009b4                IfxGtm_TOM2_0_TOUT87_P14_7_OUT
                0x00000000800009c8                IfxGtm_TOM2_0_TOUT53_P21_2_OUT
                0x00000000800009dc                IfxGtm_TOM2_0_TOUT48_P22_1_OUT
                0x00000000800009f0                IfxGtm_TOM2_0_TOUT119_P11_0_OUT
                0x0000000080000a04                IfxGtm_TOM1_9_TOUT1_P02_1_OUT
                0x0000000080000a18                IfxGtm_TOM1_9_TOUT142_P32_7_OUT
                0x0000000080000a2c                IfxGtm_TOM1_9_TOUT129_P12_1_OUT
                0x0000000080000a40                IfxGtm_TOM1_8_TOUT141_P32_6_OUT
                0x0000000080000a54                IfxGtm_TOM1_8_TOUT128_P12_0_OUT
                0x0000000080000a68                IfxGtm_TOM1_8_TOUT0_P02_0_OUT
                0x0000000080000a7c                IfxGtm_TOM1_7_TOUT84_P14_4_OUT
                0x0000000080000a90                IfxGtm_TOM1_7_TOUT75_P15_4_OUT
                0x0000000080000aa4                IfxGtm_TOM1_7_TOUT64_P20_8_OUT
                0x0000000080000ab8                IfxGtm_TOM1_7_TOUT45_P23_4_OUT
                0x0000000080000acc                IfxGtm_TOM1_7_TOUT44_P23_3_OUT
                0x0000000080000ae0                IfxGtm_TOM1_7_TOUT25_P33_3_OUT
                0x0000000080000af4                IfxGtm_TOM1_7_TOUT17_P00_8_OUT
                0x0000000080000b08                IfxGtm_TOM1_6_TOUT83_P14_3_OUT
                0x0000000080000b1c                IfxGtm_TOM1_6_TOUT74_P15_3_OUT
                0x0000000080000b30                IfxGtm_TOM1_6_TOUT43_P23_2_OUT
                0x0000000080000b44                IfxGtm_TOM1_6_TOUT24_P33_2_OUT
                0x0000000080000b58                IfxGtm_TOM1_6_TOUT16_P00_7_OUT
                0x0000000080000b6c                IfxGtm_TOM1_5_TOUT82_P14_2_OUT
                0x0000000080000b80                IfxGtm_TOM1_5_TOUT73_P15_2_OUT
                0x0000000080000b94                IfxGtm_TOM1_5_TOUT41_P23_0_OUT
                0x0000000080000ba8                IfxGtm_TOM1_5_TOUT40_P32_4_OUT
                0x0000000080000bbc                IfxGtm_TOM1_5_TOUT23_P33_1_OUT
                0x0000000080000bd0                IfxGtm_TOM1_5_TOUT15_P00_6_OUT
                0x0000000080000be4                IfxGtm_TOM1_4_TOUT81_P14_1_OUT
                0x0000000080000bf8                IfxGtm_TOM1_4_TOUT72_P15_1_OUT
                0x0000000080000c0c                IfxGtm_TOM1_4_TOUT39_P32_3_OUT
                0x0000000080000c20                IfxGtm_TOM1_4_TOUT30_P33_8_OUT
                0x0000000080000c34                IfxGtm_TOM1_4_TOUT22_P33_0_OUT
                0x0000000080000c48                IfxGtm_TOM1_4_TOUT14_P00_5_OUT
                0x0000000080000c5c                IfxGtm_TOM1_3_TOUT80_P14_0_OUT
                0x0000000080000c70                IfxGtm_TOM1_3_TOUT71_P15_0_OUT
                0x0000000080000c84                IfxGtm_TOM1_3_TOUT38_P32_2_OUT
                0x0000000080000c98                IfxGtm_TOM1_3_TOUT29_P33_7_OUT
                0x0000000080000cac                IfxGtm_TOM1_3_TOUT21_P00_12_OUT
                0x0000000080000cc0                IfxGtm_TOM1_3_TOUT13_P00_4_OUT
                0x0000000080000cd4                IfxGtm_TOM1_2_TOUT79_P15_8_OUT
                0x0000000080000ce8                IfxGtm_TOM1_2_TOUT70_P20_14_OUT
                0x0000000080000cfc                IfxGtm_TOM1_2_TOUT33_P33_11_OUT
                0x0000000080000d10                IfxGtm_TOM1_2_TOUT28_P33_6_OUT
                0x0000000080000d24                IfxGtm_TOM1_2_TOUT20_P00_11_OUT
                0x0000000080000d38                IfxGtm_TOM1_2_TOUT12_P00_3_OUT
                0x0000000080000d4c                IfxGtm_TOM1_1_TOUT86_P14_6_OUT
                0x0000000080000d60                IfxGtm_TOM1_1_TOUT78_P15_7_OUT
                0x0000000080000d74                IfxGtm_TOM1_1_TOUT69_P20_13_OUT
                0x0000000080000d88                IfxGtm_TOM1_1_TOUT31_P33_9_OUT
                0x0000000080000d9c                IfxGtm_TOM1_1_TOUT27_P33_5_OUT
                0x0000000080000db0                IfxGtm_TOM1_1_TOUT19_P00_10_OUT
                0x0000000080000dc4                IfxGtm_TOM1_1_TOUT11_P00_2_OUT
                0x0000000080000dd8                IfxGtm_TOM1_1_TOUT10_P00_1_OUT
                0x0000000080000dec                IfxGtm_TOM1_15_TOUT7_P02_7_OUT
                0x0000000080000e00                IfxGtm_TOM1_15_TOUT67_P20_11_OUT
                0x0000000080000e14                IfxGtm_TOM1_15_TOUT150_P34_5_OUT
                0x0000000080000e28                IfxGtm_TOM1_15_TOUT148_P34_3_OUT
                0x0000000080000e3c                IfxGtm_TOM1_14_TOUT6_P02_6_OUT
                0x0000000080000e50                IfxGtm_TOM1_14_TOUT66_P20_10_OUT
                0x0000000080000e64                IfxGtm_TOM1_14_TOUT36_P32_0_OUT
                0x0000000080000e78                IfxGtm_TOM1_14_TOUT147_P34_2_OUT
                0x0000000080000e8c                IfxGtm_TOM1_13_TOUT65_P20_9_OUT
                0x0000000080000ea0                IfxGtm_TOM1_13_TOUT5_P02_5_OUT
                0x0000000080000eb4                IfxGtm_TOM1_13_TOUT35_P33_13_OUT
                0x0000000080000ec8                IfxGtm_TOM1_13_TOUT146_P34_1_OUT
                0x0000000080000edc                IfxGtm_TOM1_12_TOUT61_P20_3_OUT
                0x0000000080000ef0                IfxGtm_TOM1_12_TOUT4_P02_4_OUT
                0x0000000080000f04                IfxGtm_TOM1_12_TOUT34_P33_12_OUT
                0x0000000080000f18                IfxGtm_TOM1_11_TOUT63_P20_7_OUT
                0x0000000080000f2c                IfxGtm_TOM1_11_TOUT60_P20_1_OUT
                0x0000000080000f40                IfxGtm_TOM1_11_TOUT3_P02_3_OUT
                0x0000000080000f54                IfxGtm_TOM1_11_TOUT144_P33_15_OUT
                0x0000000080000f68                IfxGtm_TOM1_10_TOUT62_P20_6_OUT
                0x0000000080000f7c                IfxGtm_TOM1_10_TOUT2_P02_2_OUT
                0x0000000080000f90                IfxGtm_TOM1_10_TOUT143_P33_14_OUT
                0x0000000080000fa4                IfxGtm_TOM1_0_TOUT9_P00_0_OUT
                0x0000000080000fb8                IfxGtm_TOM1_0_TOUT8_P02_8_OUT
                0x0000000080000fcc                IfxGtm_TOM1_0_TOUT85_P14_5_OUT
                0x0000000080000fe0                IfxGtm_TOM1_0_TOUT77_P15_6_OUT
                0x0000000080000ff4                IfxGtm_TOM1_0_TOUT76_P15_5_OUT
                0x0000000080001008                IfxGtm_TOM1_0_TOUT68_P20_12_OUT
                0x000000008000101c                IfxGtm_TOM1_0_TOUT32_P33_10_OUT
                0x0000000080001030                IfxGtm_TOM1_0_TOUT26_P33_4_OUT
                0x0000000080001044                IfxGtm_TOM1_0_TOUT18_P00_9_OUT
                0x0000000080001058                IfxGtm_TOM0_9_TOUT52_P21_1_OUT
                0x000000008000106c                IfxGtm_TOM0_9_TOUT47_P22_0_OUT
                0x0000000080001080                IfxGtm_TOM0_9_TOUT1_P02_1_OUT
                0x0000000080001094                IfxGtm_TOM0_9_TOUT11_P00_2_OUT
                0x00000000800010a8                IfxGtm_TOM0_9_TOUT10_P00_1_OUT
                0x00000000800010bc                IfxGtm_TOM0_8_TOUT9_P00_0_OUT
                0x00000000800010d0                IfxGtm_TOM0_8_TOUT95_P11_2_OUT
                0x00000000800010e4                IfxGtm_TOM0_8_TOUT94_P13_3_OUT
                0x00000000800010f8                IfxGtm_TOM0_8_TOUT8_P02_8_OUT
                0x000000008000110c                IfxGtm_TOM0_8_TOUT51_P21_0_OUT
                0x0000000080001120                IfxGtm_TOM0_8_TOUT48_P22_1_OUT
                0x0000000080001134                IfxGtm_TOM0_8_TOUT0_P02_0_OUT
                0x0000000080001148                IfxGtm_TOM0_7_TOUT93_P13_2_OUT
                0x000000008000115c                IfxGtm_TOM0_7_TOUT84_P14_4_OUT
                0x0000000080001170                IfxGtm_TOM0_7_TOUT45_P23_4_OUT
                0x0000000080001184                IfxGtm_TOM0_7_TOUT25_P33_3_OUT
                0x0000000080001198                IfxGtm_TOM0_6_TOUT92_P13_1_OUT
                0x00000000800011ac                IfxGtm_TOM0_6_TOUT83_P14_3_OUT
                0x00000000800011c0                IfxGtm_TOM0_6_TOUT59_P20_0_OUT
                0x00000000800011d4                IfxGtm_TOM0_6_TOUT42_P23_1_OUT
                0x00000000800011e8                IfxGtm_TOM0_6_TOUT24_P33_2_OUT
                0x00000000800011fc                IfxGtm_TOM0_6_TOUT106_P10_4_OUT
                0x0000000080001210                IfxGtm_TOM0_5_TOUT91_P13_0_OUT
                0x0000000080001224                IfxGtm_TOM0_5_TOUT82_P14_2_OUT
                0x0000000080001238                IfxGtm_TOM0_5_TOUT58_P21_7_OUT
                0x000000008000124c                IfxGtm_TOM0_5_TOUT40_P32_4_OUT
                0x0000000080001260                IfxGtm_TOM0_5_TOUT23_P33_1_OUT
                0x0000000080001274                IfxGtm_TOM0_5_TOUT110_P10_8_OUT
                0x0000000080001288                IfxGtm_TOM0_4_TOUT90_P14_10_OUT
                0x000000008000129c                IfxGtm_TOM0_4_TOUT81_P14_1_OUT
                0x00000000800012b0                IfxGtm_TOM0_4_TOUT57_P21_6_OUT
                0x00000000800012c4                IfxGtm_TOM0_4_TOUT39_P32_3_OUT
                0x00000000800012d8                IfxGtm_TOM0_4_TOUT30_P33_8_OUT
                0x00000000800012ec                IfxGtm_TOM0_4_TOUT22_P33_0_OUT
                0x0000000080001300                IfxGtm_TOM0_4_TOUT102_P10_0_OUT
                0x0000000080001314                IfxGtm_TOM0_3_TOUT89_P14_9_OUT
                0x0000000080001328                IfxGtm_TOM0_3_TOUT80_P14_0_OUT
                0x000000008000133c                IfxGtm_TOM0_3_TOUT56_P21_5_OUT
                0x0000000080001350                IfxGtm_TOM0_3_TOUT38_P32_2_OUT
                0x0000000080001364                IfxGtm_TOM0_3_TOUT29_P33_7_OUT
                0x0000000080001378                IfxGtm_TOM0_3_TOUT21_P00_12_OUT
                0x000000008000138c                IfxGtm_TOM0_3_TOUT108_P10_6_OUT
                0x00000000800013a0                IfxGtm_TOM0_3_TOUT105_P10_3_OUT
                0x00000000800013b4                IfxGtm_TOM0_2_TOUT88_P14_8_OUT
                0x00000000800013c8                IfxGtm_TOM0_2_TOUT79_P15_8_OUT
                0x00000000800013dc                IfxGtm_TOM0_2_TOUT55_P21_4_OUT
                0x00000000800013f0                IfxGtm_TOM0_2_TOUT33_P33_11_OUT
                0x0000000080001404                IfxGtm_TOM0_2_TOUT28_P33_6_OUT
                0x0000000080001418                IfxGtm_TOM0_2_TOUT20_P00_11_OUT
                0x000000008000142c                IfxGtm_TOM0_2_TOUT107_P10_5_OUT
                0x0000000080001440                IfxGtm_TOM0_2_TOUT104_P10_2_OUT
                0x0000000080001454                IfxGtm_TOM0_1_TOUT86_P14_6_OUT
                0x0000000080001468                IfxGtm_TOM0_1_TOUT78_P15_7_OUT
                0x000000008000147c                IfxGtm_TOM0_1_TOUT54_P21_3_OUT
                0x0000000080001490                IfxGtm_TOM0_1_TOUT31_P33_9_OUT
                0x00000000800014a4                IfxGtm_TOM0_1_TOUT27_P33_5_OUT
                0x00000000800014b8                IfxGtm_TOM0_1_TOUT19_P00_10_OUT
                0x00000000800014cc                IfxGtm_TOM0_1_TOUT103_P10_1_OUT
                0x00000000800014e0                IfxGtm_TOM0_15_TOUT7_P02_7_OUT
                0x00000000800014f4                IfxGtm_TOM0_15_TOUT42_P23_1_OUT
                0x0000000080001508                IfxGtm_TOM0_15_TOUT17_P00_8_OUT
                0x000000008000151c                IfxGtm_TOM0_15_TOUT101_P11_12_OUT
                0x0000000080001530                IfxGtm_TOM0_14_TOUT6_P02_6_OUT
                0x0000000080001544                IfxGtm_TOM0_14_TOUT16_P00_7_OUT
                0x0000000080001558                IfxGtm_TOM0_14_TOUT100_P11_11_OUT
                0x000000008000156c                IfxGtm_TOM0_13_TOUT99_P11_10_OUT
                0x0000000080001580                IfxGtm_TOM0_13_TOUT5_P02_5_OUT
                0x0000000080001594                IfxGtm_TOM0_13_TOUT15_P00_6_OUT
                0x00000000800015a8                IfxGtm_TOM0_12_TOUT98_P11_9_OUT
                0x00000000800015bc                IfxGtm_TOM0_12_TOUT50_P22_3_OUT
                0x00000000800015d0                IfxGtm_TOM0_12_TOUT4_P02_4_OUT
                0x00000000800015e4                IfxGtm_TOM0_12_TOUT44_P23_3_OUT
                0x00000000800015f8                IfxGtm_TOM0_12_TOUT14_P00_5_OUT
                0x000000008000160c                IfxGtm_TOM0_11_TOUT97_P11_6_OUT
                0x0000000080001620                IfxGtm_TOM0_11_TOUT49_P22_2_OUT
                0x0000000080001634                IfxGtm_TOM0_11_TOUT43_P23_2_OUT
                0x0000000080001648                IfxGtm_TOM0_11_TOUT3_P02_3_OUT
                0x000000008000165c                IfxGtm_TOM0_11_TOUT13_P00_4_OUT
                0x0000000080001670                IfxGtm_TOM0_10_TOUT96_P11_3_OUT
                0x0000000080001684                IfxGtm_TOM0_10_TOUT46_P23_5_OUT
                0x0000000080001698                IfxGtm_TOM0_10_TOUT41_P23_0_OUT
                0x00000000800016ac                IfxGtm_TOM0_10_TOUT2_P02_2_OUT
                0x00000000800016c0                IfxGtm_TOM0_10_TOUT12_P00_3_OUT
                0x00000000800016d4                IfxGtm_TOM0_0_TOUT87_P14_7_OUT
                0x00000000800016e8                IfxGtm_TOM0_0_TOUT85_P14_5_OUT
                0x00000000800016fc                IfxGtm_TOM0_0_TOUT77_P15_6_OUT
                0x0000000080001710                IfxGtm_TOM0_0_TOUT76_P15_5_OUT
                0x0000000080001724                IfxGtm_TOM0_0_TOUT53_P21_2_OUT
                0x0000000080001738                IfxGtm_TOM0_0_TOUT32_P33_10_OUT
                0x000000008000174c                IfxGtm_TOM0_0_TOUT26_P33_4_OUT
                0x0000000080001760                IfxGtm_TOM0_0_TOUT18_P00_9_OUT
                0x0000000080001774                IfxGtm_TOM0_0_TOUT109_P10_7_OUT
                0x0000000080001788                IfxGtm_TIM3_7_TIN93_P13_2_IN
                0x0000000080001798                IfxGtm_TIM3_7_TIN75_P15_4_IN
                0x00000000800017a8                IfxGtm_TIM3_7_TIN67_P20_11_IN
                0x00000000800017b8                IfxGtm_TIM3_7_TIN63_P20_7_IN
                0x00000000800017c8                IfxGtm_TIM3_7_TIN17_P00_8_IN
                0x00000000800017d8                IfxGtm_TIM3_7_TIN142_P32_7_IN
                0x00000000800017e8                IfxGtm_TIM3_7_TIN137_P22_11_IN
                0x00000000800017f8                IfxGtm_TIM3_7_TIN101_P11_12_IN
                0x0000000080001808                IfxGtm_TIM3_6_TIN92_P13_1_IN
                0x0000000080001818                IfxGtm_TIM3_6_TIN74_P15_3_IN
                0x0000000080001828                IfxGtm_TIM3_6_TIN66_P20_10_IN
                0x0000000080001838                IfxGtm_TIM3_6_TIN62_P20_6_IN
                0x0000000080001848                IfxGtm_TIM3_6_TIN16_P00_7_IN
                0x0000000080001858                IfxGtm_TIM3_6_TIN141_P32_6_IN
                0x0000000080001868                IfxGtm_TIM3_6_TIN136_P22_10_IN
                0x0000000080001878                IfxGtm_TIM3_6_TIN100_P11_11_IN
                0x0000000080001888                IfxGtm_TIM3_5_TIN99_P11_10_IN
                0x0000000080001898                IfxGtm_TIM3_5_TIN91_P13_0_IN
                0x00000000800018a8                IfxGtm_TIM3_5_TIN73_P15_2_IN
                0x00000000800018b8                IfxGtm_TIM3_5_TIN65_P20_9_IN
                0x00000000800018c8                IfxGtm_TIM3_5_TIN52_P21_1_IN
                0x00000000800018d8                IfxGtm_TIM3_5_TIN15_P00_6_IN
                0x00000000800018e8                IfxGtm_TIM3_5_TIN140_P32_5_IN
                0x00000000800018f8                IfxGtm_TIM3_5_TIN135_P22_9_IN
                0x0000000080001908                IfxGtm_TIM3_4_TIN98_P11_9_IN
                0x0000000080001918                IfxGtm_TIM3_4_TIN90_P14_10_IN
                0x0000000080001928                IfxGtm_TIM3_4_TIN72_P15_1_IN
                0x0000000080001938                IfxGtm_TIM3_4_TIN61_P20_3_IN
                0x0000000080001948                IfxGtm_TIM3_4_TIN51_P21_0_IN
                0x0000000080001958                IfxGtm_TIM3_4_TIN14_P00_5_IN
                0x0000000080001968                IfxGtm_TIM3_4_TIN134_P22_8_IN
                0x0000000080001978                IfxGtm_TIM3_3_TIN97_P11_6_IN
                0x0000000080001988                IfxGtm_TIM3_3_TIN89_P14_9_IN
                0x0000000080001998                IfxGtm_TIM3_3_TIN71_P15_0_IN
                0x00000000800019a8                IfxGtm_TIM3_3_TIN60_P20_1_IN
                0x00000000800019b8                IfxGtm_TIM3_3_TIN13_P00_4_IN
                0x00000000800019c8                IfxGtm_TIM3_3_TIN133_P22_7_IN
                0x00000000800019d8                IfxGtm_TIM3_2_TIN96_P11_3_IN
                0x00000000800019e8                IfxGtm_TIM3_2_TIN88_P14_8_IN
                0x00000000800019f8                IfxGtm_TIM3_2_TIN70_P20_14_IN
                0x0000000080001a08                IfxGtm_TIM3_2_TIN36_P32_0_IN
                0x0000000080001a18                IfxGtm_TIM3_2_TIN132_P22_6_IN
                0x0000000080001a28                IfxGtm_TIM3_2_TIN12_P00_3_IN
                0x0000000080001a38                IfxGtm_TIM3_1_TIN95_P11_2_IN
                0x0000000080001a48                IfxGtm_TIM3_1_TIN69_P20_13_IN
                0x0000000080001a58                IfxGtm_TIM3_1_TIN35_P33_13_IN
                0x0000000080001a68                IfxGtm_TIM3_1_TIN131_P22_5_IN
                0x0000000080001a78                IfxGtm_TIM3_1_TIN129_P12_1_IN
                0x0000000080001a88                IfxGtm_TIM3_1_TIN11_P00_2_IN
                0x0000000080001a98                IfxGtm_TIM3_1_TIN10_P00_1_IN
                0x0000000080001aa8                IfxGtm_TIM3_0_TIN9_P00_0_IN
                0x0000000080001ab8                IfxGtm_TIM3_0_TIN94_P13_3_IN
                0x0000000080001ac8                IfxGtm_TIM3_0_TIN8_P02_8_IN
                0x0000000080001ad8                IfxGtm_TIM3_0_TIN76_P15_5_IN
                0x0000000080001ae8                IfxGtm_TIM3_0_TIN68_P20_12_IN
                0x0000000080001af8                IfxGtm_TIM3_0_TIN34_P33_12_IN
                0x0000000080001b08                IfxGtm_TIM3_0_TIN130_P22_4_IN
                0x0000000080001b18                IfxGtm_TIM3_0_TIN128_P12_0_IN
                0x0000000080001b28                IfxGtm_TIM2_7_TIN93_P13_2_IN
                0x0000000080001b38                IfxGtm_TIM2_7_TIN75_P15_4_IN
                0x0000000080001b48                IfxGtm_TIM2_7_TIN67_P20_11_IN
                0x0000000080001b58                IfxGtm_TIM2_7_TIN63_P20_7_IN
                0x0000000080001b68                IfxGtm_TIM2_7_TIN17_P00_8_IN
                0x0000000080001b78                IfxGtm_TIM2_7_TIN150_P34_5_IN
                0x0000000080001b88                IfxGtm_TIM2_7_TIN126_P11_14_IN
                0x0000000080001b98                IfxGtm_TIM2_7_TIN115_P01_7_IN
                0x0000000080001ba8                IfxGtm_TIM2_7_TIN101_P11_12_IN
                0x0000000080001bb8                IfxGtm_TIM2_6_TIN92_P13_1_IN
                0x0000000080001bc8                IfxGtm_TIM2_6_TIN74_P15_3_IN
                0x0000000080001bd8                IfxGtm_TIM2_6_TIN66_P20_10_IN
                0x0000000080001be8                IfxGtm_TIM2_6_TIN62_P20_6_IN
                0x0000000080001bf8                IfxGtm_TIM2_6_TIN16_P00_7_IN
                0x0000000080001c08                IfxGtm_TIM2_6_TIN149_P34_4_IN
                0x0000000080001c18                IfxGtm_TIM2_6_TIN125_P11_13_IN
                0x0000000080001c28                IfxGtm_TIM2_6_TIN100_P11_11_IN
                0x0000000080001c38                IfxGtm_TIM2_5_TIN99_P11_10_IN
                0x0000000080001c48                IfxGtm_TIM2_5_TIN91_P13_0_IN
                0x0000000080001c58                IfxGtm_TIM2_5_TIN73_P15_2_IN
                0x0000000080001c68                IfxGtm_TIM2_5_TIN65_P20_9_IN
                0x0000000080001c78                IfxGtm_TIM2_5_TIN52_P21_1_IN
                0x0000000080001c88                IfxGtm_TIM2_5_TIN15_P00_6_IN
                0x0000000080001c98                IfxGtm_TIM2_5_TIN148_P34_3_IN
                0x0000000080001ca8                IfxGtm_TIM2_5_TIN124_P11_8_IN
                0x0000000080001cb8                IfxGtm_TIM2_5_TIN114_P01_6_IN
                0x0000000080001cc8                IfxGtm_TIM2_4_TIN98_P11_9_IN
                0x0000000080001cd8                IfxGtm_TIM2_4_TIN90_P14_10_IN
                0x0000000080001ce8                IfxGtm_TIM2_4_TIN72_P15_1_IN
                0x0000000080001cf8                IfxGtm_TIM2_4_TIN61_P20_3_IN
                0x0000000080001d08                IfxGtm_TIM2_4_TIN51_P21_0_IN
                0x0000000080001d18                IfxGtm_TIM2_4_TIN14_P00_5_IN
                0x0000000080001d28                IfxGtm_TIM2_4_TIN147_P34_2_IN
                0x0000000080001d38                IfxGtm_TIM2_4_TIN123_P11_7_IN
                0x0000000080001d48                IfxGtm_TIM2_3_TIN97_P11_6_IN
                0x0000000080001d58                IfxGtm_TIM2_3_TIN89_P14_9_IN
                0x0000000080001d68                IfxGtm_TIM2_3_TIN71_P15_0_IN
                0x0000000080001d78                IfxGtm_TIM2_3_TIN60_P20_1_IN
                0x0000000080001d88                IfxGtm_TIM2_3_TIN146_P34_1_IN
                0x0000000080001d98                IfxGtm_TIM2_3_TIN13_P00_4_IN
                0x0000000080001da8                IfxGtm_TIM2_3_TIN122_P11_5_IN
                0x0000000080001db8                IfxGtm_TIM2_3_TIN113_P01_5_IN
                0x0000000080001dc8                IfxGtm_TIM2_2_TIN96_P11_3_IN
                0x0000000080001dd8                IfxGtm_TIM2_2_TIN88_P14_8_IN
                0x0000000080001de8                IfxGtm_TIM2_2_TIN70_P20_14_IN
                0x0000000080001df8                IfxGtm_TIM2_2_TIN36_P32_0_IN
                0x0000000080001e08                IfxGtm_TIM2_2_TIN12_P00_3_IN
                0x0000000080001e18                IfxGtm_TIM2_2_TIN121_P11_4_IN
                0x0000000080001e28                IfxGtm_TIM2_1_TIN95_P11_2_IN
                0x0000000080001e38                IfxGtm_TIM2_1_TIN69_P20_13_IN
                0x0000000080001e48                IfxGtm_TIM2_1_TIN35_P33_13_IN
                0x0000000080001e58                IfxGtm_TIM2_1_TIN144_P33_15_IN
                0x0000000080001e68                IfxGtm_TIM2_1_TIN120_P11_1_IN
                0x0000000080001e78                IfxGtm_TIM2_1_TIN11_P00_2_IN
                0x0000000080001e88                IfxGtm_TIM2_1_TIN10_P00_1_IN
                0x0000000080001e98                IfxGtm_TIM2_0_TIN9_P00_0_IN
                0x0000000080001ea8                IfxGtm_TIM2_0_TIN94_P13_3_IN
                0x0000000080001eb8                IfxGtm_TIM2_0_TIN8_P02_8_IN
                0x0000000080001ec8                IfxGtm_TIM2_0_TIN76_P15_5_IN
                0x0000000080001ed8                IfxGtm_TIM2_0_TIN68_P20_12_IN
                0x0000000080001ee8                IfxGtm_TIM2_0_TIN34_P33_12_IN
                0x0000000080001ef8                IfxGtm_TIM2_0_TIN143_P33_14_IN
                0x0000000080001f08                IfxGtm_TIM2_0_TIN119_P11_0_IN
                0x0000000080001f18                IfxGtm_TIM1_7_TIN84_P14_4_IN
                0x0000000080001f28                IfxGtm_TIM1_7_TIN7_P02_7_IN
                0x0000000080001f38                IfxGtm_TIM1_7_TIN64_P20_8_IN
                0x0000000080001f48                IfxGtm_TIM1_7_TIN45_P23_4_IN
                0x0000000080001f58                IfxGtm_TIM1_7_TIN44_P23_3_IN
                0x0000000080001f68                IfxGtm_TIM1_7_TIN25_P33_3_IN
                0x0000000080001f78                IfxGtm_TIM1_6_TIN83_P14_3_IN
                0x0000000080001f88                IfxGtm_TIM1_6_TIN6_P02_6_IN
                0x0000000080001f98                IfxGtm_TIM1_6_TIN59_P20_0_IN
                0x0000000080001fa8                IfxGtm_TIM1_6_TIN43_P23_2_IN
                0x0000000080001fb8                IfxGtm_TIM1_6_TIN42_P23_1_IN
                0x0000000080001fc8                IfxGtm_TIM1_6_TIN24_P33_2_IN
                0x0000000080001fd8                IfxGtm_TIM1_6_TIN106_P10_4_IN
                0x0000000080001fe8                IfxGtm_TIM1_5_TIN82_P14_2_IN
                0x0000000080001ff8                IfxGtm_TIM1_5_TIN5_P02_5_IN
                0x0000000080002008                IfxGtm_TIM1_5_TIN58_P21_7_IN
                0x0000000080002018                IfxGtm_TIM1_5_TIN41_P23_0_IN
                0x0000000080002028                IfxGtm_TIM1_5_TIN40_P32_4_IN
                0x0000000080002038                IfxGtm_TIM1_5_TIN23_P33_1_IN
                0x0000000080002048                IfxGtm_TIM1_5_TIN110_P10_8_IN
                0x0000000080002058                IfxGtm_TIM1_4_TIN81_P14_1_IN
                0x0000000080002068                IfxGtm_TIM1_4_TIN57_P21_6_IN
                0x0000000080002078                IfxGtm_TIM1_4_TIN50_P22_3_IN
                0x0000000080002088                IfxGtm_TIM1_4_TIN4_P02_4_IN
                0x0000000080002098                IfxGtm_TIM1_4_TIN39_P32_3_IN
                0x00000000800020a8                IfxGtm_TIM1_4_TIN30_P33_8_IN
                0x00000000800020b8                IfxGtm_TIM1_4_TIN22_P33_0_IN
                0x00000000800020c8                IfxGtm_TIM1_4_TIN102_P10_0_IN
                0x00000000800020d8                IfxGtm_TIM1_3_TIN80_P14_0_IN
                0x00000000800020e8                IfxGtm_TIM1_3_TIN56_P21_5_IN
                0x00000000800020f8                IfxGtm_TIM1_3_TIN49_P22_2_IN
                0x0000000080002108                IfxGtm_TIM1_3_TIN3_P02_3_IN
                0x0000000080002118                IfxGtm_TIM1_3_TIN38_P32_2_IN
                0x0000000080002128                IfxGtm_TIM1_3_TIN29_P33_7_IN
                0x0000000080002138                IfxGtm_TIM1_3_TIN21_P00_12_IN
                0x0000000080002148                IfxGtm_TIM1_3_TIN139_P23_7_IN
                0x0000000080002158                IfxGtm_TIM1_3_TIN108_P10_6_IN
                0x0000000080002168                IfxGtm_TIM1_3_TIN105_P10_3_IN
                0x0000000080002178                IfxGtm_TIM1_2_TIN79_P15_8_IN
                0x0000000080002188                IfxGtm_TIM1_2_TIN55_P21_4_IN
                0x0000000080002198                IfxGtm_TIM1_2_TIN46_P23_5_IN
                0x00000000800021a8                IfxGtm_TIM1_2_TIN33_P33_11_IN
                0x00000000800021b8                IfxGtm_TIM1_2_TIN2_P02_2_IN
                0x00000000800021c8                IfxGtm_TIM1_2_TIN28_P33_6_IN
                0x00000000800021d8                IfxGtm_TIM1_2_TIN20_P00_11_IN
                0x00000000800021e8                IfxGtm_TIM1_2_TIN138_P23_6_IN
                0x00000000800021f8                IfxGtm_TIM1_2_TIN107_P10_5_IN
                0x0000000080002208                IfxGtm_TIM1_2_TIN104_P10_2_IN
                0x0000000080002218                IfxGtm_TIM1_1_TIN86_P14_6_IN
                0x0000000080002228                IfxGtm_TIM1_1_TIN78_P15_7_IN
                0x0000000080002238                IfxGtm_TIM1_1_TIN54_P21_3_IN
                0x0000000080002248                IfxGtm_TIM1_1_TIN47_P22_0_IN
                0x0000000080002258                IfxGtm_TIM1_1_TIN31_P33_9_IN
                0x0000000080002268                IfxGtm_TIM1_1_TIN27_P33_5_IN
                0x0000000080002278                IfxGtm_TIM1_1_TIN1_P02_1_IN
                0x0000000080002288                IfxGtm_TIM1_1_TIN19_P00_10_IN
                0x0000000080002298                IfxGtm_TIM1_1_TIN103_P10_1_IN
                0x00000000800022a8                IfxGtm_TIM1_0_TIN87_P14_7_IN
                0x00000000800022b8                IfxGtm_TIM1_0_TIN85_P14_5_IN
                0x00000000800022c8                IfxGtm_TIM1_0_TIN77_P15_6_IN
                0x00000000800022d8                IfxGtm_TIM1_0_TIN53_P21_2_IN
                0x00000000800022e8                IfxGtm_TIM1_0_TIN48_P22_1_IN
                0x00000000800022f8                IfxGtm_TIM1_0_TIN32_P33_10_IN
                0x0000000080002308                IfxGtm_TIM1_0_TIN26_P33_4_IN
                0x0000000080002318                IfxGtm_TIM1_0_TIN18_P00_9_IN
                0x0000000080002328                IfxGtm_TIM1_0_TIN109_P10_7_IN
                0x0000000080002338                IfxGtm_TIM1_0_TIN0_P02_0_IN
                0x0000000080002348                IfxGtm_TIM0_7_TIN84_P14_4_IN
                0x0000000080002358                IfxGtm_TIM0_7_TIN7_P02_7_IN
                0x0000000080002368                IfxGtm_TIM0_7_TIN64_P20_8_IN
                0x0000000080002378                IfxGtm_TIM0_7_TIN45_P23_4_IN
                0x0000000080002388                IfxGtm_TIM0_7_TIN44_P23_3_IN
                0x0000000080002398                IfxGtm_TIM0_7_TIN25_P33_3_IN
                0x00000000800023a8                IfxGtm_TIM0_7_TIN127_P11_15_IN
                0x00000000800023b8                IfxGtm_TIM0_7_TIN118_P02_11_IN
                0x00000000800023c8                IfxGtm_TIM0_6_TIN83_P14_3_IN
                0x00000000800023d8                IfxGtm_TIM0_6_TIN6_P02_6_IN
                0x00000000800023e8                IfxGtm_TIM0_6_TIN59_P20_0_IN
                0x00000000800023f8                IfxGtm_TIM0_6_TIN43_P23_2_IN
                0x0000000080002408                IfxGtm_TIM0_6_TIN42_P23_1_IN
                0x0000000080002418                IfxGtm_TIM0_6_TIN24_P33_2_IN
                0x0000000080002428                IfxGtm_TIM0_6_TIN112_P01_4_IN
                0x0000000080002438                IfxGtm_TIM0_6_TIN106_P10_4_IN
                0x0000000080002448                IfxGtm_TIM0_5_TIN82_P14_2_IN
                0x0000000080002458                IfxGtm_TIM0_5_TIN5_P02_5_IN
                0x0000000080002468                IfxGtm_TIM0_5_TIN58_P21_7_IN
                0x0000000080002478                IfxGtm_TIM0_5_TIN41_P23_0_IN
                0x0000000080002488                IfxGtm_TIM0_5_TIN40_P32_4_IN
                0x0000000080002498                IfxGtm_TIM0_5_TIN23_P33_1_IN
                0x00000000800024a8                IfxGtm_TIM0_5_TIN111_P01_3_IN
                0x00000000800024b8                IfxGtm_TIM0_5_TIN110_P10_8_IN
                0x00000000800024c8                IfxGtm_TIM0_4_TIN81_P14_1_IN
                0x00000000800024d8                IfxGtm_TIM0_4_TIN57_P21_6_IN
                0x00000000800024e8                IfxGtm_TIM0_4_TIN50_P22_3_IN
                0x00000000800024f8                IfxGtm_TIM0_4_TIN4_P02_4_IN
                0x0000000080002508                IfxGtm_TIM0_4_TIN39_P32_3_IN
                0x0000000080002518                IfxGtm_TIM0_4_TIN30_P33_8_IN
                0x0000000080002528                IfxGtm_TIM0_4_TIN22_P33_0_IN
                0x0000000080002538                IfxGtm_TIM0_4_TIN102_P10_0_IN
                0x0000000080002548                IfxGtm_TIM0_3_TIN80_P14_0_IN
                0x0000000080002558                IfxGtm_TIM0_3_TIN56_P21_5_IN
                0x0000000080002568                IfxGtm_TIM0_3_TIN49_P22_2_IN
                0x0000000080002578                IfxGtm_TIM0_3_TIN3_P02_3_IN
                0x0000000080002588                IfxGtm_TIM0_3_TIN38_P32_2_IN
                0x0000000080002598                IfxGtm_TIM0_3_TIN29_P33_7_IN
                0x00000000800025a8                IfxGtm_TIM0_3_TIN21_P00_12_IN
                0x00000000800025b8                IfxGtm_TIM0_3_TIN117_P02_10_IN
                0x00000000800025c8                IfxGtm_TIM0_3_TIN108_P10_6_IN
                0x00000000800025d8                IfxGtm_TIM0_3_TIN105_P10_3_IN
                0x00000000800025e8                IfxGtm_TIM0_2_TIN79_P15_8_IN
                0x00000000800025f8                IfxGtm_TIM0_2_TIN55_P21_4_IN
                0x0000000080002608                IfxGtm_TIM0_2_TIN46_P23_5_IN
                0x0000000080002618                IfxGtm_TIM0_2_TIN33_P33_11_IN
                0x0000000080002628                IfxGtm_TIM0_2_TIN2_P02_2_IN
                0x0000000080002638                IfxGtm_TIM0_2_TIN28_P33_6_IN
                0x0000000080002648                IfxGtm_TIM0_2_TIN20_P00_11_IN
                0x0000000080002658                IfxGtm_TIM0_2_TIN116_P02_9_IN
                0x0000000080002668                IfxGtm_TIM0_2_TIN107_P10_5_IN
                0x0000000080002678                IfxGtm_TIM0_2_TIN104_P10_2_IN
                0x0000000080002688                IfxGtm_TIM0_1_TIN86_P14_6_IN
                0x0000000080002698                IfxGtm_TIM0_1_TIN78_P15_7_IN
                0x00000000800026a8                IfxGtm_TIM0_1_TIN54_P21_3_IN
                0x00000000800026b8                IfxGtm_TIM0_1_TIN47_P22_0_IN
                0x00000000800026c8                IfxGtm_TIM0_1_TIN31_P33_9_IN
                0x00000000800026d8                IfxGtm_TIM0_1_TIN27_P33_5_IN
                0x00000000800026e8                IfxGtm_TIM0_1_TIN1_P02_1_IN
                0x00000000800026f8                IfxGtm_TIM0_1_TIN19_P00_10_IN
                0x0000000080002708                IfxGtm_TIM0_1_TIN103_P10_1_IN
                0x0000000080002718                IfxGtm_TIM0_0_TIN87_P14_7_IN
                0x0000000080002728                IfxGtm_TIM0_0_TIN85_P14_5_IN
                0x0000000080002738                IfxGtm_TIM0_0_TIN77_P15_6_IN
                0x0000000080002748                IfxGtm_TIM0_0_TIN53_P21_2_IN
                0x0000000080002758                IfxGtm_TIM0_0_TIN48_P22_1_IN
                0x0000000080002768                IfxGtm_TIM0_0_TIN32_P33_10_IN
                0x0000000080002778                IfxGtm_TIM0_0_TIN26_P33_4_IN
                0x0000000080002788                IfxGtm_TIM0_0_TIN18_P00_9_IN
                0x0000000080002798                IfxGtm_TIM0_0_TIN109_P10_7_IN
                0x00000000800027a8                IfxGtm_TIM0_0_TIN0_P02_0_IN
                0x00000000800027b8                IfxGtm_CLK2_P11_12_OUT
                0x00000000800027c8                IfxGtm_CLK1_P32_4_OUT
                0x00000000800027d8                IfxGtm_CLK0_P23_1_OUT
                0x00000000800027e8                IfxGtm_ATOM4_7_TOUT75_P15_4_OUT
                0x00000000800027fc                IfxGtm_ATOM4_7_TOUT67_P20_11_OUT
                0x0000000080002810                IfxGtm_ATOM4_7_TOUT64_P20_8_OUT
                0x0000000080002824                IfxGtm_ATOM4_7_TOUT118_P02_11_OUT
                0x0000000080002838                IfxGtm_ATOM4_6_TOUT74_P15_3_OUT
                0x000000008000284c                IfxGtm_ATOM4_6_TOUT66_P20_10_OUT
                0x0000000080002860                IfxGtm_ATOM4_6_TOUT59_P20_0_OUT
                0x0000000080002874                IfxGtm_ATOM4_6_TOUT117_P02_10_OUT
                0x0000000080002888                IfxGtm_ATOM4_6_TOUT106_P10_4_OUT
                0x000000008000289c                IfxGtm_ATOM4_5_TOUT73_P15_2_OUT
                0x00000000800028b0                IfxGtm_ATOM4_5_TOUT65_P20_9_OUT
                0x00000000800028c4                IfxGtm_ATOM4_5_TOUT58_P21_7_OUT
                0x00000000800028d8                IfxGtm_ATOM4_5_TOUT116_P02_9_OUT
                0x00000000800028ec                IfxGtm_ATOM4_5_TOUT110_P10_8_OUT
                0x0000000080002900                IfxGtm_ATOM4_4_TOUT81_P14_1_OUT
                0x0000000080002914                IfxGtm_ATOM4_4_TOUT72_P15_1_OUT
                0x0000000080002928                IfxGtm_ATOM4_4_TOUT57_P21_6_OUT
                0x000000008000293c                IfxGtm_ATOM4_4_TOUT50_P22_3_OUT
                0x0000000080002950                IfxGtm_ATOM4_4_TOUT102_P10_0_OUT
                0x0000000080002964                IfxGtm_ATOM4_3_TOUT82_P14_2_OUT
                0x0000000080002978                IfxGtm_ATOM4_3_TOUT71_P15_0_OUT
                0x000000008000298c                IfxGtm_ATOM4_3_TOUT56_P21_5_OUT
                0x00000000800029a0                IfxGtm_ATOM4_3_TOUT49_P22_2_OUT
                0x00000000800029b4                IfxGtm_ATOM4_3_TOUT108_P10_6_OUT
                0x00000000800029c8                IfxGtm_ATOM4_3_TOUT105_P10_3_OUT
                0x00000000800029dc                IfxGtm_ATOM4_2_TOUT83_P14_3_OUT
                0x00000000800029f0                IfxGtm_ATOM4_2_TOUT80_P14_0_OUT
                0x0000000080002a04                IfxGtm_ATOM4_2_TOUT70_P20_14_OUT
                0x0000000080002a18                IfxGtm_ATOM4_2_TOUT55_P21_4_OUT
                0x0000000080002a2c                IfxGtm_ATOM4_2_TOUT46_P23_5_OUT
                0x0000000080002a40                IfxGtm_ATOM4_2_TOUT107_P10_5_OUT
                0x0000000080002a54                IfxGtm_ATOM4_2_TOUT104_P10_2_OUT
                0x0000000080002a68                IfxGtm_ATOM4_1_TOUT86_P14_6_OUT
                0x0000000080002a7c                IfxGtm_ATOM4_1_TOUT84_P14_4_OUT
                0x0000000080002a90                IfxGtm_ATOM4_1_TOUT79_P15_8_OUT
                0x0000000080002aa4                IfxGtm_ATOM4_1_TOUT78_P15_7_OUT
                0x0000000080002ab8                IfxGtm_ATOM4_1_TOUT69_P20_13_OUT
                0x0000000080002acc                IfxGtm_ATOM4_1_TOUT54_P21_3_OUT
                0x0000000080002ae0                IfxGtm_ATOM4_1_TOUT47_P22_0_OUT
                0x0000000080002af4                IfxGtm_ATOM4_1_TOUT103_P10_1_OUT
                0x0000000080002b08                IfxGtm_ATOM4_0_TOUT87_P14_7_OUT
                0x0000000080002b1c                IfxGtm_ATOM4_0_TOUT85_P14_5_OUT
                0x0000000080002b30                IfxGtm_ATOM4_0_TOUT77_P15_6_OUT
                0x0000000080002b44                IfxGtm_ATOM4_0_TOUT76_P15_5_OUT
                0x0000000080002b58                IfxGtm_ATOM4_0_TOUT68_P20_12_OUT
                0x0000000080002b6c                IfxGtm_ATOM4_0_TOUT53_P21_2_OUT
                0x0000000080002b80                IfxGtm_ATOM4_0_TOUT48_P22_1_OUT
                0x0000000080002b94                IfxGtm_ATOM4_0_TOUT109_P10_7_OUT
                0x0000000080002ba8                IfxGtm_ATOM3_7_TOUT93_P13_2_OUT
                0x0000000080002bbc                IfxGtm_ATOM3_7_TOUT63_P20_7_OUT
                0x0000000080002bd0                IfxGtm_ATOM3_7_TOUT101_P11_12_OUT
                0x0000000080002be4                IfxGtm_ATOM3_6_TOUT92_P13_1_OUT
                0x0000000080002bf8                IfxGtm_ATOM3_6_TOUT62_P20_6_OUT
                0x0000000080002c0c                IfxGtm_ATOM3_6_TOUT36_P32_0_OUT
                0x0000000080002c20                IfxGtm_ATOM3_6_TOUT100_P11_11_OUT
                0x0000000080002c34                IfxGtm_ATOM3_5_TOUT99_P11_10_OUT
                0x0000000080002c48                IfxGtm_ATOM3_5_TOUT91_P13_0_OUT
                0x0000000080002c5c                IfxGtm_ATOM3_5_TOUT52_P21_1_OUT
                0x0000000080002c70                IfxGtm_ATOM3_5_TOUT35_P33_13_OUT
                0x0000000080002c84                IfxGtm_ATOM3_5_TOUT115_P01_7_OUT
                0x0000000080002c98                IfxGtm_ATOM3_4_TOUT98_P11_9_OUT
                0x0000000080002cac                IfxGtm_ATOM3_4_TOUT90_P14_10_OUT
                0x0000000080002cc0                IfxGtm_ATOM3_4_TOUT51_P21_0_OUT
                0x0000000080002cd4                IfxGtm_ATOM3_4_TOUT34_P33_12_OUT
                0x0000000080002ce8                IfxGtm_ATOM3_4_TOUT30_P33_8_OUT
                0x0000000080002cfc                IfxGtm_ATOM3_4_TOUT22_P33_0_OUT
                0x0000000080002d10                IfxGtm_ATOM3_4_TOUT114_P01_6_OUT
                0x0000000080002d24                IfxGtm_ATOM3_3_TOUT97_P11_6_OUT
                0x0000000080002d38                IfxGtm_ATOM3_3_TOUT89_P14_9_OUT
                0x0000000080002d4c                IfxGtm_ATOM3_3_TOUT29_P33_7_OUT
                0x0000000080002d60                IfxGtm_ATOM3_3_TOUT21_P00_12_OUT
                0x0000000080002d74                IfxGtm_ATOM3_3_TOUT113_P01_5_OUT
                0x0000000080002d88                IfxGtm_ATOM3_2_TOUT96_P11_3_OUT
                0x0000000080002d9c                IfxGtm_ATOM3_2_TOUT88_P14_8_OUT
                0x0000000080002db0                IfxGtm_ATOM3_2_TOUT44_P23_3_OUT
                0x0000000080002dc4                IfxGtm_ATOM3_2_TOUT28_P33_6_OUT
                0x0000000080002dd8                IfxGtm_ATOM3_2_TOUT20_P00_11_OUT
                0x0000000080002dec                IfxGtm_ATOM3_2_TOUT112_P01_4_OUT
                0x0000000080002e00                IfxGtm_ATOM3_1_TOUT95_P11_2_OUT
                0x0000000080002e14                IfxGtm_ATOM3_1_TOUT43_P23_2_OUT
                0x0000000080002e28                IfxGtm_ATOM3_1_TOUT27_P33_5_OUT
                0x0000000080002e3c                IfxGtm_ATOM3_1_TOUT19_P00_10_OUT
                0x0000000080002e50                IfxGtm_ATOM3_1_TOUT111_P01_3_OUT
                0x0000000080002e64                IfxGtm_ATOM3_0_TOUT94_P13_3_OUT
                0x0000000080002e78                IfxGtm_ATOM3_0_TOUT32_P33_10_OUT
                0x0000000080002e8c                IfxGtm_ATOM3_0_TOUT26_P33_4_OUT
                0x0000000080002ea0                IfxGtm_ATOM3_0_TOUT18_P00_9_OUT
                0x0000000080002eb4                IfxGtm_ATOM2_7_TOUT93_P13_2_OUT
                0x0000000080002ec8                IfxGtm_ATOM2_7_TOUT63_P20_7_OUT
                0x0000000080002edc                IfxGtm_ATOM2_7_TOUT140_P32_5_OUT
                0x0000000080002ef0                IfxGtm_ATOM2_7_TOUT101_P11_12_OUT
                0x0000000080002f04                IfxGtm_ATOM2_6_TOUT92_P13_1_OUT
                0x0000000080002f18                IfxGtm_ATOM2_6_TOUT62_P20_6_OUT
                0x0000000080002f2c                IfxGtm_ATOM2_6_TOUT36_P32_0_OUT
                0x0000000080002f40                IfxGtm_ATOM2_6_TOUT139_P23_7_OUT
                0x0000000080002f54                IfxGtm_ATOM2_6_TOUT100_P11_11_OUT
                0x0000000080002f68                IfxGtm_ATOM2_5_TOUT99_P11_10_OUT
                0x0000000080002f7c                IfxGtm_ATOM2_5_TOUT91_P13_0_OUT
                0x0000000080002f90                IfxGtm_ATOM2_5_TOUT52_P21_1_OUT
                0x0000000080002fa4                IfxGtm_ATOM2_5_TOUT35_P33_13_OUT
                0x0000000080002fb8                IfxGtm_ATOM2_5_TOUT138_P23_6_OUT
                0x0000000080002fcc                IfxGtm_ATOM2_4_TOUT98_P11_9_OUT
                0x0000000080002fe0                IfxGtm_ATOM2_4_TOUT90_P14_10_OUT
                0x0000000080002ff4                IfxGtm_ATOM2_4_TOUT51_P21_0_OUT
                0x0000000080003008                IfxGtm_ATOM2_4_TOUT34_P33_12_OUT
                0x000000008000301c                IfxGtm_ATOM2_4_TOUT30_P33_8_OUT
                0x0000000080003030                IfxGtm_ATOM2_4_TOUT22_P33_0_OUT
                0x0000000080003044                IfxGtm_ATOM2_3_TOUT97_P11_6_OUT
                0x0000000080003058                IfxGtm_ATOM2_3_TOUT89_P14_9_OUT
                0x000000008000306c                IfxGtm_ATOM2_3_TOUT29_P33_7_OUT
                0x0000000080003080                IfxGtm_ATOM2_3_TOUT21_P00_12_OUT
                0x0000000080003094                IfxGtm_ATOM2_2_TOUT96_P11_3_OUT
                0x00000000800030a8                IfxGtm_ATOM2_2_TOUT88_P14_8_OUT
                0x00000000800030bc                IfxGtm_ATOM2_2_TOUT44_P23_3_OUT
                0x00000000800030d0                IfxGtm_ATOM2_2_TOUT28_P33_6_OUT
                0x00000000800030e4                IfxGtm_ATOM2_2_TOUT20_P00_11_OUT
                0x00000000800030f8                IfxGtm_ATOM2_1_TOUT95_P11_2_OUT
                0x000000008000310c                IfxGtm_ATOM2_1_TOUT43_P23_2_OUT
                0x0000000080003120                IfxGtm_ATOM2_1_TOUT27_P33_5_OUT
                0x0000000080003134                IfxGtm_ATOM2_1_TOUT19_P00_10_OUT
                0x0000000080003148                IfxGtm_ATOM2_0_TOUT94_P13_3_OUT
                0x000000008000315c                IfxGtm_ATOM2_0_TOUT32_P33_10_OUT
                0x0000000080003170                IfxGtm_ATOM2_0_TOUT26_P33_4_OUT
                0x0000000080003184                IfxGtm_ATOM2_0_TOUT18_P00_9_OUT
                0x0000000080003198                IfxGtm_ATOM1_7_TOUT7_P02_7_OUT
                0x00000000800031ac                IfxGtm_ATOM1_7_TOUT75_P15_4_OUT
                0x00000000800031c0                IfxGtm_ATOM1_7_TOUT67_P20_11_OUT
                0x00000000800031d4                IfxGtm_ATOM1_7_TOUT45_P23_4_OUT
                0x00000000800031e8                IfxGtm_ATOM1_7_TOUT25_P33_3_OUT
                0x00000000800031fc                IfxGtm_ATOM1_7_TOUT17_P00_8_OUT
                0x0000000080003210                IfxGtm_ATOM1_6_TOUT74_P15_3_OUT
                0x0000000080003224                IfxGtm_ATOM1_6_TOUT6_P02_6_OUT
                0x0000000080003238                IfxGtm_ATOM1_6_TOUT66_P20_10_OUT
                0x000000008000324c                IfxGtm_ATOM1_6_TOUT42_P23_1_OUT
                0x0000000080003260                IfxGtm_ATOM1_6_TOUT24_P33_2_OUT
                0x0000000080003274                IfxGtm_ATOM1_6_TOUT16_P00_7_OUT
                0x0000000080003288                IfxGtm_ATOM1_5_TOUT73_P15_2_OUT
                0x000000008000329c                IfxGtm_ATOM1_5_TOUT65_P20_9_OUT
                0x00000000800032b0                IfxGtm_ATOM1_5_TOUT5_P02_5_OUT
                0x00000000800032c4                IfxGtm_ATOM1_5_TOUT41_P23_0_OUT
                0x00000000800032d8                IfxGtm_ATOM1_5_TOUT40_P32_4_OUT
                0x00000000800032ec                IfxGtm_ATOM1_5_TOUT23_P33_1_OUT
                0x0000000080003300                IfxGtm_ATOM1_5_TOUT15_P00_6_OUT
                0x0000000080003314                IfxGtm_ATOM1_5_TOUT110_P10_8_OUT
                0x0000000080003328                IfxGtm_ATOM1_4_TOUT72_P15_1_OUT
                0x000000008000333c                IfxGtm_ATOM1_4_TOUT61_P20_3_OUT
                0x0000000080003350                IfxGtm_ATOM1_4_TOUT4_P02_4_OUT
                0x0000000080003364                IfxGtm_ATOM1_4_TOUT39_P32_3_OUT
                0x0000000080003378                IfxGtm_ATOM1_4_TOUT14_P00_5_OUT
                0x000000008000338c                IfxGtm_ATOM1_4_TOUT102_P10_0_OUT
                0x00000000800033a0                IfxGtm_ATOM1_3_TOUT71_P15_0_OUT
                0x00000000800033b4                IfxGtm_ATOM1_3_TOUT60_P20_1_OUT
                0x00000000800033c8                IfxGtm_ATOM1_3_TOUT3_P02_3_OUT
                0x00000000800033dc                IfxGtm_ATOM1_3_TOUT38_P32_2_OUT
                0x00000000800033f0                IfxGtm_ATOM1_3_TOUT13_P00_4_OUT
                0x0000000080003404                IfxGtm_ATOM1_3_TOUT108_P10_6_OUT
                0x0000000080003418                IfxGtm_ATOM1_3_TOUT105_P10_3_OUT
                0x000000008000342c                IfxGtm_ATOM1_2_TOUT80_P14_0_OUT
                0x0000000080003440                IfxGtm_ATOM1_2_TOUT70_P20_14_OUT
                0x0000000080003454                IfxGtm_ATOM1_2_TOUT33_P33_11_OUT
                0x0000000080003468                IfxGtm_ATOM1_2_TOUT2_P02_2_OUT
                0x000000008000347c                IfxGtm_ATOM1_2_TOUT12_P00_3_OUT
                0x0000000080003490                IfxGtm_ATOM1_2_TOUT107_P10_5_OUT
                0x00000000800034a4                IfxGtm_ATOM1_2_TOUT104_P10_2_OUT
                0x00000000800034b8                IfxGtm_ATOM1_1_TOUT86_P14_6_OUT
                0x00000000800034cc                IfxGtm_ATOM1_1_TOUT79_P15_8_OUT
                0x00000000800034e0                IfxGtm_ATOM1_1_TOUT78_P15_7_OUT
                0x00000000800034f4                IfxGtm_ATOM1_1_TOUT69_P20_13_OUT
                0x0000000080003508                IfxGtm_ATOM1_1_TOUT31_P33_9_OUT
                0x000000008000351c                IfxGtm_ATOM1_1_TOUT1_P02_1_OUT
                0x0000000080003530                IfxGtm_ATOM1_1_TOUT11_P00_2_OUT
                0x0000000080003544                IfxGtm_ATOM1_1_TOUT10_P00_1_OUT
                0x0000000080003558                IfxGtm_ATOM1_1_TOUT103_P10_1_OUT
                0x000000008000356c                IfxGtm_ATOM1_0_TOUT9_P00_0_OUT
                0x0000000080003580                IfxGtm_ATOM1_0_TOUT8_P02_8_OUT
                0x0000000080003594                IfxGtm_ATOM1_0_TOUT87_P14_7_OUT
                0x00000000800035a8                IfxGtm_ATOM1_0_TOUT77_P15_6_OUT
                0x00000000800035bc                IfxGtm_ATOM1_0_TOUT76_P15_5_OUT
                0x00000000800035d0                IfxGtm_ATOM1_0_TOUT68_P20_12_OUT
                0x00000000800035e4                IfxGtm_ATOM1_0_TOUT109_P10_7_OUT
                0x00000000800035f8                IfxGtm_ATOM1_0_TOUT0_P02_0_OUT
                0x000000008000360c                IfxGtm_ATOM0_7_TOUT7_P02_7_OUT
                0x0000000080003620                IfxGtm_ATOM0_7_TOUT64_P20_8_OUT
                0x0000000080003634                IfxGtm_ATOM0_7_TOUT45_P23_4_OUT
                0x0000000080003648                IfxGtm_ATOM0_7_TOUT25_P33_3_OUT
                0x000000008000365c                IfxGtm_ATOM0_7_TOUT17_P00_8_OUT
                0x0000000080003670                IfxGtm_ATOM0_6_TOUT6_P02_6_OUT
                0x0000000080003684                IfxGtm_ATOM0_6_TOUT59_P20_0_OUT
                0x0000000080003698                IfxGtm_ATOM0_6_TOUT42_P23_1_OUT
                0x00000000800036ac                IfxGtm_ATOM0_6_TOUT24_P33_2_OUT
                0x00000000800036c0                IfxGtm_ATOM0_6_TOUT16_P00_7_OUT
                0x00000000800036d4                IfxGtm_ATOM0_6_TOUT106_P10_4_OUT
                0x00000000800036e8                IfxGtm_ATOM0_5_TOUT5_P02_5_OUT
                0x00000000800036fc                IfxGtm_ATOM0_5_TOUT58_P21_7_OUT
                0x0000000080003710                IfxGtm_ATOM0_5_TOUT41_P23_0_OUT
                0x0000000080003724                IfxGtm_ATOM0_5_TOUT40_P32_4_OUT
                0x0000000080003738                IfxGtm_ATOM0_5_TOUT23_P33_1_OUT
                0x000000008000374c                IfxGtm_ATOM0_5_TOUT15_P00_6_OUT
                0x0000000080003760                IfxGtm_ATOM0_4_TOUT81_P14_1_OUT
                0x0000000080003774                IfxGtm_ATOM0_4_TOUT61_P20_3_OUT
                0x0000000080003788                IfxGtm_ATOM0_4_TOUT57_P21_6_OUT
                0x000000008000379c                IfxGtm_ATOM0_4_TOUT50_P22_3_OUT
                0x00000000800037b0                IfxGtm_ATOM0_4_TOUT4_P02_4_OUT
                0x00000000800037c4                IfxGtm_ATOM0_4_TOUT39_P32_3_OUT
                0x00000000800037d8                IfxGtm_ATOM0_4_TOUT14_P00_5_OUT
                0x00000000800037ec                IfxGtm_ATOM0_3_TOUT82_P14_2_OUT
                0x0000000080003800                IfxGtm_ATOM0_3_TOUT60_P20_1_OUT
                0x0000000080003814                IfxGtm_ATOM0_3_TOUT56_P21_5_OUT
                0x0000000080003828                IfxGtm_ATOM0_3_TOUT49_P22_2_OUT
                0x000000008000383c                IfxGtm_ATOM0_3_TOUT3_P02_3_OUT
                0x0000000080003850                IfxGtm_ATOM0_3_TOUT38_P32_2_OUT
                0x0000000080003864                IfxGtm_ATOM0_3_TOUT13_P00_4_OUT
                0x0000000080003878                IfxGtm_ATOM0_2_TOUT83_P14_3_OUT
                0x000000008000388c                IfxGtm_ATOM0_2_TOUT55_P21_4_OUT
                0x00000000800038a0                IfxGtm_ATOM0_2_TOUT46_P23_5_OUT
                0x00000000800038b4                IfxGtm_ATOM0_2_TOUT33_P33_11_OUT
                0x00000000800038c8                IfxGtm_ATOM0_2_TOUT2_P02_2_OUT
                0x00000000800038dc                IfxGtm_ATOM0_2_TOUT12_P00_3_OUT
                0x00000000800038f0                IfxGtm_ATOM0_1_TOUT84_P14_4_OUT
                0x0000000080003904                IfxGtm_ATOM0_1_TOUT54_P21_3_OUT
                0x0000000080003918                IfxGtm_ATOM0_1_TOUT47_P22_0_OUT
                0x000000008000392c                IfxGtm_ATOM0_1_TOUT31_P33_9_OUT
                0x0000000080003940                IfxGtm_ATOM0_1_TOUT1_P02_1_OUT
                0x0000000080003954                IfxGtm_ATOM0_1_TOUT11_P00_2_OUT
                0x0000000080003968                IfxGtm_ATOM0_1_TOUT10_P00_1_OUT
                0x000000008000397c                IfxGtm_ATOM0_0_TOUT9_P00_0_OUT
                0x0000000080003990                IfxGtm_ATOM0_0_TOUT8_P02_8_OUT
                0x00000000800039a4                IfxGtm_ATOM0_0_TOUT85_P14_5_OUT
                0x00000000800039b8                IfxGtm_ATOM0_0_TOUT53_P21_2_OUT
                0x00000000800039cc                IfxGtm_ATOM0_0_TOUT48_P22_1_OUT
                0x00000000800039e0                IfxGtm_ATOM0_0_TOUT0_P02_0_OUT
 .rodata        0x00000000800039f4      0x6b0 obj/illd/src/IfxAsclin_PinMap.c.o
                0x00000000800039f4                IfxAsclin3_TX_P32_3_OUT
                0x0000000080003a04                IfxAsclin3_TX_P32_2_OUT
                0x0000000080003a14                IfxAsclin3_TX_P22_1_OUT
                0x0000000080003a24                IfxAsclin3_TX_P22_0_OUT
                0x0000000080003a34                IfxAsclin3_TX_P21_7_OUT
                0x0000000080003a44                IfxAsclin3_TX_P20_3_OUT
                0x0000000080003a54                IfxAsclin3_TX_P20_0_OUT
                0x0000000080003a64                IfxAsclin3_TX_P15_7_OUT
                0x0000000080003a74                IfxAsclin3_TX_P15_6_OUT
                0x0000000080003a84                IfxAsclin3_TX_P11_1_OUT
                0x0000000080003a94                IfxAsclin3_TX_P11_0_OUT
                0x0000000080003aa4                IfxAsclin3_TX_P00_1_OUT
                0x0000000080003ab4                IfxAsclin3_TX_P00_0_OUT
                0x0000000080003ac4                IfxAsclin2_TX_P33_9_OUT
                0x0000000080003ad4                IfxAsclin2_TX_P33_8_OUT
                0x0000000080003ae4                IfxAsclin2_TX_P32_5_OUT
                0x0000000080003af4                IfxAsclin2_TX_P14_3_OUT
                0x0000000080003b04                IfxAsclin2_TX_P14_2_OUT
                0x0000000080003b14                IfxAsclin2_TX_P10_5_OUT
                0x0000000080003b24                IfxAsclin2_TX_P02_9_OUT
                0x0000000080003b34                IfxAsclin2_TX_P02_0_OUT
                0x0000000080003b44                IfxAsclin1_TX_P33_13_OUT
                0x0000000080003b54                IfxAsclin1_TX_P33_12_OUT
                0x0000000080003b64                IfxAsclin1_TX_P20_10_OUT
                0x0000000080003b74                IfxAsclin1_TX_P15_5_OUT
                0x0000000080003b84                IfxAsclin1_TX_P15_4_OUT
                0x0000000080003b94                IfxAsclin1_TX_P15_1_OUT
                0x0000000080003ba4                IfxAsclin1_TX_P15_0_OUT
                0x0000000080003bb4                IfxAsclin1_TX_P14_10_OUT
                0x0000000080003bc4                IfxAsclin1_TX_P11_12_OUT
                0x0000000080003bd4                IfxAsclin1_TX_P02_2_OUT
                0x0000000080003be4                IfxAsclin0_TX_P34_1_OUT
                0x0000000080003bf4                IfxAsclin0_TX_P15_3_OUT
                0x0000000080003c04                IfxAsclin0_TX_P15_2_OUT
                0x0000000080003c14                IfxAsclin0_TX_P14_1_OUT
                0x0000000080003c24                IfxAsclin0_TX_P14_0_OUT
                0x0000000080003c34                IfxAsclin3_SLSO_P33_1_OUT
                0x0000000080003c44                IfxAsclin3_SLSO_P21_6_OUT
                0x0000000080003c54                IfxAsclin3_SLSO_P21_2_OUT
                0x0000000080003c64                IfxAsclin3_SLSO_P14_3_OUT
                0x0000000080003c74                IfxAsclin3_SLSO_P12_1_OUT
                0x0000000080003c84                IfxAsclin3_SLSO_P00_3_OUT
                0x0000000080003c94                IfxAsclin2_SLSO_P33_6_OUT
                0x0000000080003ca4                IfxAsclin2_SLSO_P10_5_OUT
                0x0000000080003cb4                IfxAsclin2_SLSO_P02_3_OUT
                0x0000000080003cc4                IfxAsclin1_SLSO_P33_10_OUT
                0x0000000080003cd4                IfxAsclin1_SLSO_P20_8_OUT
                0x0000000080003ce4                IfxAsclin1_SLSO_P14_3_OUT
                0x0000000080003cf4                IfxAsclin3_SCLK_P33_2_OUT
                0x0000000080003d04                IfxAsclin3_SCLK_P32_3_OUT
                0x0000000080003d14                IfxAsclin3_SCLK_P21_7_OUT
                0x0000000080003d24                IfxAsclin3_SCLK_P21_5_OUT
                0x0000000080003d34                IfxAsclin3_SCLK_P20_0_OUT
                0x0000000080003d44                IfxAsclin3_SCLK_P15_8_OUT
                0x0000000080003d54                IfxAsclin3_SCLK_P15_6_OUT
                0x0000000080003d64                IfxAsclin3_SCLK_P11_4_OUT
                0x0000000080003d74                IfxAsclin3_SCLK_P11_1_OUT
                0x0000000080003d84                IfxAsclin3_SCLK_P00_2_OUT
                0x0000000080003d94                IfxAsclin3_SCLK_P00_0_OUT
                0x0000000080003da4                IfxAsclin2_SCLK_P33_9_OUT
                0x0000000080003db4                IfxAsclin2_SCLK_P33_7_OUT
                0x0000000080003dc4                IfxAsclin2_SCLK_P14_2_OUT
                0x0000000080003dd4                IfxAsclin2_SCLK_P10_6_OUT
                0x0000000080003de4                IfxAsclin2_SCLK_P02_4_OUT
                0x0000000080003df4                IfxAsclin1_SCLK_P33_12_OUT
                0x0000000080003e04                IfxAsclin1_SCLK_P33_11_OUT
                0x0000000080003e14                IfxAsclin1_SCLK_P20_10_OUT
                0x0000000080003e24                IfxAsclin1_SCLK_P15_0_OUT
                0x0000000080003e34                IfxAsclin0_SCLK_P15_2_OUT
                0x0000000080003e44                IfxAsclin0_SCLK_P14_0_OUT
                0x0000000080003e54                IfxAsclin3_RXG_P21_3_IN
                0x0000000080003e64                IfxAsclin3_RXG_P21_2_IN
                0x0000000080003e74                IfxAsclin3_RXF_P21_6_IN
                0x0000000080003e84                IfxAsclin3_RXE_P00_1_IN
                0x0000000080003e94                IfxAsclin3_RXD_P32_2_IN
                0x0000000080003ea4                IfxAsclin3_RXC_P20_3_IN
                0x0000000080003eb4                IfxAsclin3_RXB_P11_0_IN
                0x0000000080003ec4                IfxAsclin3_RXA_P15_7_IN
                0x0000000080003ed4                IfxAsclin2_RXG_P02_0_IN
                0x0000000080003ee4                IfxAsclin2_RXF_P32_6_IN
                0x0000000080003ef4                IfxAsclin2_RXE_P33_8_IN
                0x0000000080003f04                IfxAsclin2_RXD_P10_6_IN
                0x0000000080003f14                IfxAsclin2_RXC_P02_10_IN
                0x0000000080003f24                IfxAsclin2_RXB_P02_1_IN
                0x0000000080003f34                IfxAsclin2_RXA_P14_3_IN
                0x0000000080003f44                IfxAsclin1_RXG_P02_3_IN
                0x0000000080003f54                IfxAsclin1_RXF_P33_13_IN
                0x0000000080003f64                IfxAsclin1_RXE_P11_10_IN
                0x0000000080003f74                IfxAsclin1_RXD_P14_8_IN
                0x0000000080003f84                IfxAsclin1_RXC_P20_9_IN
                0x0000000080003f94                IfxAsclin1_RXB_P15_5_IN
                0x0000000080003fa4                IfxAsclin1_RXA_P15_1_IN
                0x0000000080003fb4                IfxAsclin0_RXD_P34_2_IN
                0x0000000080003fc4                IfxAsclin0_RXB_P15_3_IN
                0x0000000080003fd4                IfxAsclin0_RXA_P14_1_IN
                0x0000000080003fe4                IfxAsclin3_RTS_P00_9_OUT
                0x0000000080003ff4                IfxAsclin2_RTS_P33_4_OUT
                0x0000000080004004                IfxAsclin2_RTS_P10_8_OUT
                0x0000000080004014                IfxAsclin1_RTS_P23_1_OUT
                0x0000000080004024                IfxAsclin1_RTS_P20_6_OUT
                0x0000000080004034                IfxAsclin0_RTS_P14_7_OUT
                0x0000000080004044                IfxAsclin3_CTSA_P00_12_IN
                0x0000000080004054                IfxAsclin2_CTSB_P33_5_IN
                0x0000000080004064                IfxAsclin2_CTSA_P10_7_IN
                0x0000000080004074                IfxAsclin1_CTSB_P32_4_IN
                0x0000000080004084                IfxAsclin1_CTSA_P20_7_IN
                0x0000000080004094                IfxAsclin0_CTSA_P14_9_IN
 .rodata        0x00000000800040a4       0x20 obj/illd/src/IfxAsclin_cfg.c.o
                0x00000000800040a4                IfxAsclin_cfg_indexMap
 .rodata        0x00000000800040c4      0x100 obj/illd/src/IfxPort_cfg.c.o
                0x00000000800040c4                IfxPort_cfg_indexMap
                0x0000000080004144                IfxPort_cfg_esrMasks
 .rodata        0x00000000800041c4       0x80 obj/illd/src/IfxScuCcu.c.o
                0x00000000800041c4                IfxScuCcu_defaultErayPllConfig
                0x00000000800041cc                IfxScuCcu_defaultClockConfig
 .rodata        0x0000000080004244      0x278 obj/illd/src/IfxScu_PinMap.c.o
                0x0000000080004244                IfxScu_WDTSLCK_P20_9_OUT
                0x0000000080004254                IfxScu_WDT2LCK_P20_6_OUT
                0x0000000080004264                IfxScu_WDT1LCK_P20_7_OUT
                0x0000000080004274                IfxScu_WDT0LCK_P20_8_OUT
                0x0000000080004284                IfxScu_REQ9_P20_0_IN
                0x0000000080004298                IfxScu_REQ8_P33_7_IN
                0x00000000800042ac                IfxScu_REQ7_P00_4_IN
                0x00000000800042c0                IfxScu_REQ6_P02_0_IN
                0x00000000800042d4                IfxScu_REQ5_P10_8_IN
                0x00000000800042e8                IfxScu_REQ4_P10_7_IN
                0x00000000800042fc                IfxScu_REQ3_P10_3_IN
                0x0000000080004310                IfxScu_REQ2_P10_2_IN
                0x0000000080004324                IfxScu_REQ1_P15_8_IN
                0x0000000080004338                IfxScu_REQ16_P15_1_IN
                0x000000008000434c                IfxScu_REQ15_P14_1_IN
                0x0000000080004360                IfxScu_REQ14_P02_1_IN
                0x0000000080004374                IfxScu_REQ13_P15_5_IN
                0x0000000080004388                IfxScu_REQ12_P11_10_IN
                0x000000008000439c                IfxScu_REQ11_P20_9_IN
                0x00000000800043b0                IfxScu_REQ10_P14_3_IN
                0x00000000800043c4                IfxScu_REQ0_P15_4_IN
                0x00000000800043d8                IfxScu_HWCFG6_P14_4_IN
                0x00000000800043e4                IfxScu_HWCFG5_P10_6_IN
                0x00000000800043f0                IfxScu_HWCFG4_P10_5_IN
                0x00000000800043fc                IfxScu_HWCFG3_BMI_P14_3_IN
                0x0000000080004408                IfxScu_HWCFG2EVR13_P14_2_IN
                0x0000000080004414                IfxScu_HWCFG1EVR33_P14_5_IN
                0x0000000080004420                IfxScu_HWCFG0DCLDO_P14_6_IN
                0x000000008000442c                IfxScu_EXTCLK1_P32_4_OUT
                0x000000008000443c                IfxScu_EXTCLK1_P11_12_OUT
                0x000000008000444c                IfxScu_EXTCLK0_P23_1_OUT
                0x000000008000445c                IfxScu_EVRWUPB_P15_1_IN
                0x000000008000446c                IfxScu_EVRWUPA_P14_1_IN
                0x000000008000447c                IfxScu_EMGSTOPB_P21_2_IN
                0x000000008000448c                IfxScu_EMGSTOPA_P33_8_IN
                0x000000008000449c                IfxScu_DCDCSYNC_P33_13_OUT
                0x00000000800044ac                IfxScu_DCDCSYNC_P32_2_OUT
 .rodata        0x00000000800044bc       0x40 obj/illd/src/IfxVadc_Adc.c.o
 .rodata        0x00000000800044fc      0x210 obj/shiparker_App.c.o
                0x0000000080004594                Kp_rad_to_delta_power
                0x000000008000459c                motor_power_normal
                0x00000000800045a4                motor_power_turn
 .rodata        0x000000008000470c       0xa0 obj/uart_Driver.c.o
 .rodata        0x00000000800047ac       0x14 c:/hightec/toolchains/tricore/v4.9.3.0-infineon-1.0/bin/../lib/gcc/tricore/4.9.4/tc161\libgcc.a(_thenan_df.o)
                0x00000000800047ac                __thenan_df
 .rodata        0x00000000800047c0        0x8 c:/hightec/toolchains/tricore/v4.9.3.0-infineon-1.0/bin/../lib/gcc/tricore/4.9.4/../../../../tricore/lib/tc161\libc.a(lib_a-impure.o)
                0x00000000800047c0                _global_impure_ptr
 .rodata        0x00000000800047c8       0x54 c:/hightec/toolchains/tricore/v4.9.3.0-infineon-1.0/bin/../lib/gcc/tricore/4.9.4/../../../../tricore/lib/tc161\libc.a(lib_a-svfprintf.o)
 .rodata        0x000000008000481c        0xf c:/hightec/toolchains/tricore/v4.9.3.0-infineon-1.0/bin/../lib/gcc/tricore/4.9.4/../../../../tricore/lib/tc161\libc.a(lib_a-dtoa.o)
 *fill*         0x000000008000482b        0x1 00
 .rodata        0x000000008000482c       0x44 c:/hightec/toolchains/tricore/v4.9.3.0-infineon-1.0/bin/../lib/gcc/tricore/4.9.4/../../../../tricore/lib/tc161\libc.a(lib_a-locale.o)
 .rodata        0x0000000080004870      0x124 c:/hightec/toolchains/tricore/v4.9.3.0-infineon-1.0/bin/../lib/gcc/tricore/4.9.4/../../../../tricore/lib/tc161\libc.a(lib_a-mprec.o)
                0x000000008000487c                __mprec_tinytens
                0x00000000800048a4                __mprec_bigtens
                0x00000000800048cc                __mprec_tens
 .rodata        0x0000000080004994       0x40 c:/hightec/toolchains/tricore/v4.9.3.0-infineon-1.0/bin/../lib/gcc/tricore/4.9.4/../../../../tricore/lib/tc161\libm.a(lib_a-s_atan.o)
 .rodata        0x00000000800049d4      0x398 c:/hightec/toolchains/tricore/v4.9.3.0-infineon-1.0/bin/../lib/gcc/tricore/4.9.4/../../../../tricore/lib/tc161\libm.a(lib_a-ef_rem_pio2.o)
 .rodata        0x0000000080004d6c       0x38 c:/hightec/toolchains/tricore/v4.9.3.0-infineon-1.0/bin/../lib/gcc/tricore/4.9.4/../../../../tricore/lib/tc161\libm.a(lib_a-kf_rem_pio2.o)
 *(.rodata.*)
 *(.gnu.linkonce.r.*)
                0x0000000080004da4                . = ALIGN (0x4)
                0x0000000080004da4                PROVIDE (__clear_table, .)
                0x0000000080004da4        0x4 LONG 0x50000000 (0x0 + ADDR (.CPU2.zbss))
                0x0000000080004da8        0x4 LONG 0x0 SIZEOF (.CPU2.zbss)
                0x0000000080004dac        0x4 LONG 0x50000000 (0x0 + ADDR (.CPU2.bss))
                0x0000000080004db0        0x4 LONG 0x0 SIZEOF (.CPU2.bss)
                0x0000000080004db4        0x4 LONG 0x60000000 (0x0 + ADDR (.CPU1.zbss))
                0x0000000080004db8        0x4 LONG 0x0 SIZEOF (.CPU1.zbss)
                0x0000000080004dbc        0x4 LONG 0x60000000 (0x0 + ADDR (.CPU1.bss))
                0x0000000080004dc0        0x4 LONG 0x0 SIZEOF (.CPU1.bss)
                0x0000000080004dc4        0x4 LONG 0x70002130 (0x0 + ADDR (.CPU0.zbss))
                0x0000000080004dc8        0x4 LONG 0x0 SIZEOF (.CPU0.zbss)
                0x0000000080004dcc        0x4 LONG 0x70002130 (0x0 + ADDR (.CPU0.bss))
                0x0000000080004dd0        0x4 LONG 0x0 SIZEOF (.CPU0.bss)
                0x0000000080004dd4        0x4 LONG 0x70000000 (0x0 + ADDR (.zbss))
                0x0000000080004dd8        0x4 LONG 0x0 SIZEOF (.zbss)
                0x0000000080004ddc        0x4 LONG 0x70000000 (0x0 + ADDR (.sbss))
                0x0000000080004de0        0x4 LONG 0x0 SIZEOF (.sbss)
                0x0000000080004de4        0x4 LONG 0x700019b8 (0x0 + ADDR (.bss))
                0x0000000080004de8        0x4 LONG 0x778 SIZEOF (.bss)
                0x0000000080004dec        0x4 LONG 0xb0000000 (0x0 + ADDR (.lmu_zbss))
                0x0000000080004df0        0x4 LONG 0x0 SIZEOF (.lmu_zbss)
                0x0000000080004df4        0x4 LONG 0xb0000000 (0x0 + ADDR (.lmu_sbss))
                0x0000000080004df8        0x4 LONG 0x0 SIZEOF (.lmu_sbss)
                0x0000000080004dfc        0x4 LONG 0xb0000000 (0x0 + ADDR (.lmu_bss))
                0x0000000080004e00        0x4 LONG 0x0 SIZEOF (.lmu_bss)
                0x0000000080004e04        0x4 LONG 0xffffffffffffffff
                0x0000000080004e08        0x4 LONG 0xffffffffffffffff
                0x0000000080004e0c                PROVIDE (__copy_table, .)
                0x0000000080004e0c        0x4 LONG 0x800173a0 LOADADDR (.CPU2.zdata)
                0x0000000080004e10        0x4 LONG 0x50000000 ADDR (.CPU2.zdata)
                0x0000000080004e14        0x4 LONG 0x0 SIZEOF (.CPU2.zdata)
                0x0000000080004e18        0x4 LONG 0x800173a0 LOADADDR (.CPU2.data)
                0x0000000080004e1c        0x4 LONG 0x50000000 ADDR (.CPU2.data)
                0x0000000080004e20        0x4 LONG 0x0 SIZEOF (.CPU2.data)
                0x0000000080004e24        0x4 LONG 0x800173a0 LOADADDR (.CPU1.zdata)
                0x0000000080004e28        0x4 LONG 0x60000000 ADDR (.CPU1.zdata)
                0x0000000080004e2c        0x4 LONG 0x0 SIZEOF (.CPU1.zdata)
                0x0000000080004e30        0x4 LONG 0x800173a0 LOADADDR (.CPU1.data)
                0x0000000080004e34        0x4 LONG 0x60000000 ADDR (.CPU1.data)
                0x0000000080004e38        0x4 LONG 0x0 SIZEOF (.CPU1.data)
                0x0000000080004e3c        0x4 LONG 0x800173a0 LOADADDR (.CPU0.zdata)
                0x0000000080004e40        0x4 LONG 0x70002130 ADDR (.CPU0.zdata)
                0x0000000080004e44        0x4 LONG 0x0 SIZEOF (.CPU0.zdata)
                0x0000000080004e48        0x4 LONG 0x800173a0 LOADADDR (.CPU0.data)
                0x0000000080004e4c        0x4 LONG 0x70002130 ADDR (.CPU0.data)
                0x0000000080004e50        0x4 LONG 0x0 SIZEOF (.CPU0.data)
                0x0000000080004e54        0x4 LONG 0x800159e8 LOADADDR (.zdata)
                0x0000000080004e58        0x4 LONG 0x70000000 ADDR (.zdata)
                0x0000000080004e5c        0x4 LONG 0x0 SIZEOF (.zdata)
                0x0000000080004e60        0x4 LONG 0x800159e8 LOADADDR (.sdata)
                0x0000000080004e64        0x4 LONG 0x70000000 ADDR (.sdata)
                0x0000000080004e68        0x4 LONG 0x0 SIZEOF (.sdata)
                0x0000000080004e6c        0x4 LONG 0x800159e8 LOADADDR (.data)
                0x0000000080004e70        0x4 LONG 0x70000000 ADDR (.data)
                0x0000000080004e74        0x4 LONG 0x19b8 SIZEOF (.data)
                0x0000000080004e78        0x4 LONG 0x800173a0 LOADADDR (.lmu_zdata)
                0x0000000080004e7c        0x4 LONG 0xb0000000 ADDR (.lmu_zdata)
                0x0000000080004e80        0x4 LONG 0x0 SIZEOF (.lmu_zdata)
                0x0000000080004e84        0x4 LONG 0x800173a0 LOADADDR (.lmu_sdata)
                0x0000000080004e88        0x4 LONG 0xb0000000 ADDR (.lmu_sdata)
                0x0000000080004e8c        0x4 LONG 0x0 SIZEOF (.lmu_sdata)
                0x0000000080004e90        0x4 LONG 0x800173a0 LOADADDR (.lmu_data)
                0x0000000080004e94        0x4 LONG 0xb0000000 ADDR (.lmu_data)
                0x0000000080004e98        0x4 LONG 0x0 SIZEOF (.lmu_data)
                0x0000000080004e9c        0x4 LONG 0x800173a0 LOADADDR (.CPU0.psram_text)
                0x0000000080004ea0        0x4 LONG 0x70100000 ADDR (.CPU0.psram_text)
                0x0000000080004ea4        0x4 LONG 0x0 SIZEOF (.CPU0.psram_text)
                0x0000000080004ea8        0x4 LONG 0x800173a0 LOADADDR (.CPU1.psram_text)
                0x0000000080004eac        0x4 LONG 0x60100000 ADDR (.CPU1.psram_text)
                0x0000000080004eb0        0x4 LONG 0x0 SIZEOF (.CPU1.psram_text)
                0x0000000080004eb4        0x4 LONG 0x800173a0 LOADADDR (.CPU2.psram_text)
                0x0000000080004eb8        0x4 LONG 0x50100000 ADDR (.CPU2.psram_text)
                0x0000000080004ebc        0x4 LONG 0x0 SIZEOF (.CPU2.psram_text)
                0x0000000080004ec0        0x4 LONG 0xffffffffffffffff
                0x0000000080004ec4        0x4 LONG 0xffffffffffffffff
                0x0000000080004ec8        0x4 LONG 0xffffffffffffffff
                0x0000000080004ed0                . = ALIGN (0x8)
 *fill*         0x0000000080004ecc        0x4 00

.traptab        memory region -> PMU_PFLASH
                0x0000000080004f00      0x100
 *(.traptab)
 *(.traptab*)
 .traptab_cpu0  0x0000000080004f00      0x100 C:\Users\USER\Desktop\AUTODR~1\TC275\erika\lib\libee.a(ee_tc_trapvec.c.o)
                0x0000000080004f00                osEE_tc_trap_mmu
                0x0000000080004f00                __TRAPTAB
                0x0000000080004f20                osEE_tc_trap_protection
                0x0000000080004f40                osEE_tc_trap_instruction
                0x0000000080004f60                osEE_tc_trap_context
                0x0000000080004f80                osEE_tc_trap_bus
                0x0000000080004fa0                osEE_tc_trap_assertion
                0x0000000080004fc0                osEE_tc_trap_system
                0x0000000080004fe0                osEE_tc_trap_nmi
                0x0000000080005000                . = ALIGN (0x8)

.eh_frame       memory region -> PMU_PFLASH
                0x0000000080005000        0x0
 *(.gcc_except_table)
                0x0000000080005000                __EH_FRAME_BEGIN__ = .
 *(.eh_frame)
                0x0000000080005000                __EH_FRAME_END__ = .
 *(.jcr)
                0x0000000080005000                . = ALIGN (0x8)

.ctors          memory region -> PMU_PFLASH
                0x0000000080005000        0x8
                0x0000000080005000                __CTOR_LIST__ = .
                0x0000000080005000        0x4 LONG 0x0 (((__CTOR_END__ - __CTOR_LIST__) / 0x4) - 0x2)
 *(.ctors)
                0x0000000080005004        0x4 LONG 0x0
                0x0000000080005008                __CTOR_END__ = .
                0x0000000080005008                . = ALIGN (0x8)

.dtors          memory region -> PMU_PFLASH
                0x0000000080005008        0x8
                0x0000000080005008                __DTOR_LIST__ = .
                0x0000000080005008        0x4 LONG 0x0 (((__DTOR_END__ - __DTOR_LIST__) / 0x4) - 0x2)
 *(.dtors)
                0x000000008000500c        0x4 LONG 0x0
                0x0000000080005010                __DTOR_END__ = .
                0x0000000080005010                . = ALIGN (0x8)

.inttab_cpu0    memory region -> PMU_PFLASH
                0x0000000080006000     0x2000
 *(.inttab_cpu0)
 .inttab_cpu0   0x0000000080006000     0x2000 C:\Users\USER\Desktop\AUTODR~1\TC275\erika\lib\libee.a(ee_tc_intvec.c.o)
                0x0000000080006000                __INTTAB0
                0x0000000080006020                osEE_tc_isr_dummy_entry_1
                0x0000000080006040                osEE_tc_isr_dummy_entry_2
                0x0000000080006060                osEE_tc_isr_dummy_entry_3
                0x0000000080006080                osEE_tc_isr_dummy_entry_4
                0x00000000800060a0                osEE_tc_isr_dummy_entry_5
                0x00000000800060c0                osEE_tc_isr2_entry_6
                0x00000000800060e0                osEE_tc_isr2_entry_7
                0x0000000080006100                osEE_tc_isr_dummy_entry_8
                0x0000000080006120                osEE_tc_isr_dummy_entry_9
                0x0000000080006140                osEE_tc_isr2_entry_10
                0x0000000080006160                osEE_tc_isr2_entry_11
                0x0000000080006180                osEE_tc_isr2_entry_12
                0x00000000800061a0                osEE_tc_isr2_entry_13
                0x00000000800061c0                osEE_tc_isr2_entry_14
                0x00000000800061e0                osEE_tc_isr2_entry_15
                0x0000000080006200                osEE_tc_isr_dummy_entry_16
                0x0000000080006220                osEE_tc_isr2_entry_17
                0x0000000080006240                osEE_tc_isr_dummy_entry_18
                0x0000000080006260                osEE_tc_isr_dummy_entry_19
                0x0000000080006280                osEE_tc_isr_dummy_entry_20
                0x00000000800062a0                osEE_tc_isr_dummy_entry_21
                0x00000000800062c0                osEE_tc_isr_dummy_entry_22
                0x00000000800062e0                osEE_tc_isr_dummy_entry_23
                0x0000000080006300                osEE_tc_isr_dummy_entry_24
                0x0000000080006320                osEE_tc_isr_dummy_entry_25
                0x0000000080006340                osEE_tc_isr_dummy_entry_26
                0x0000000080006360                osEE_tc_isr_dummy_entry_27
                0x0000000080006380                osEE_tc_isr_dummy_entry_28
                0x00000000800063a0                osEE_tc_isr_dummy_entry_29
                0x00000000800063c0                osEE_tc_isr_dummy_entry_30
                0x00000000800063e0                osEE_tc_isr_dummy_entry_31
                0x0000000080006400                osEE_tc_isr_dummy_entry_32
                0x0000000080006420                osEE_tc_isr_dummy_entry_33
                0x0000000080006440                osEE_tc_isr_dummy_entry_34
                0x0000000080006460                osEE_tc_isr_dummy_entry_35
                0x0000000080006480                osEE_tc_isr_dummy_entry_36
                0x00000000800064a0                osEE_tc_isr_dummy_entry_37
                0x00000000800064c0                osEE_tc_isr_dummy_entry_38
                0x00000000800064e0                osEE_tc_isr_dummy_entry_39
                0x0000000080006500                osEE_tc_isr_dummy_entry_40
                0x0000000080006520                osEE_tc_isr_dummy_entry_41
                0x0000000080006540                osEE_tc_isr_dummy_entry_42
                0x0000000080006560                osEE_tc_isr_dummy_entry_43
                0x0000000080006580                osEE_tc_isr_dummy_entry_44
                0x00000000800065a0                osEE_tc_isr_dummy_entry_45
                0x00000000800065c0                osEE_tc_isr_dummy_entry_46
                0x00000000800065e0                osEE_tc_isr_dummy_entry_47
                0x0000000080006600                osEE_tc_isr_dummy_entry_48
                0x0000000080006620                osEE_tc_isr_dummy_entry_49
                0x0000000080006640                osEE_tc_isr_dummy_entry_50
                0x0000000080006660                osEE_tc_isr_dummy_entry_51
                0x0000000080006680                osEE_tc_isr_dummy_entry_52
                0x00000000800066a0                osEE_tc_isr_dummy_entry_53
                0x00000000800066c0                osEE_tc_isr_dummy_entry_54
                0x00000000800066e0                osEE_tc_isr_dummy_entry_55
                0x0000000080006700                osEE_tc_isr_dummy_entry_56
                0x0000000080006720                osEE_tc_isr_dummy_entry_57
                0x0000000080006740                osEE_tc_isr_dummy_entry_58
                0x0000000080006760                osEE_tc_isr_dummy_entry_59
                0x0000000080006780                osEE_tc_isr_dummy_entry_60
                0x00000000800067a0                osEE_tc_isr_dummy_entry_61
                0x00000000800067c0                osEE_tc_isr_dummy_entry_62
                0x00000000800067e0                osEE_tc_isr_dummy_entry_63
                0x0000000080006800                osEE_tc_isr_dummy_entry_64
                0x0000000080006820                osEE_tc_isr_dummy_entry_65
                0x0000000080006840                osEE_tc_isr_dummy_entry_66
                0x0000000080006860                osEE_tc_isr_dummy_entry_67
                0x0000000080006880                osEE_tc_isr_dummy_entry_68
                0x00000000800068a0                osEE_tc_isr_dummy_entry_69
                0x00000000800068c0                osEE_tc_isr_dummy_entry_70
                0x00000000800068e0                osEE_tc_isr_dummy_entry_71
                0x0000000080006900                osEE_tc_isr_dummy_entry_72
                0x0000000080006920                osEE_tc_isr_dummy_entry_73
                0x0000000080006940                osEE_tc_isr_dummy_entry_74
                0x0000000080006960                osEE_tc_isr_dummy_entry_75
                0x0000000080006980                osEE_tc_isr_dummy_entry_76
                0x00000000800069a0                osEE_tc_isr_dummy_entry_77
                0x00000000800069c0                osEE_tc_isr_dummy_entry_78
                0x00000000800069e0                osEE_tc_isr_dummy_entry_79
                0x0000000080006a00                osEE_tc_isr_dummy_entry_80
                0x0000000080006a20                osEE_tc_isr_dummy_entry_81
                0x0000000080006a40                osEE_tc_isr_dummy_entry_82
                0x0000000080006a60                osEE_tc_isr_dummy_entry_83
                0x0000000080006a80                osEE_tc_isr_dummy_entry_84
                0x0000000080006aa0                osEE_tc_isr_dummy_entry_85
                0x0000000080006ac0                osEE_tc_isr_dummy_entry_86
                0x0000000080006ae0                osEE_tc_isr_dummy_entry_87
                0x0000000080006b00                osEE_tc_isr_dummy_entry_88
                0x0000000080006b20                osEE_tc_isr_dummy_entry_89
                0x0000000080006b40                osEE_tc_isr_dummy_entry_90
                0x0000000080006b60                osEE_tc_isr_dummy_entry_91
                0x0000000080006b80                osEE_tc_isr_dummy_entry_92
                0x0000000080006ba0                osEE_tc_isr_dummy_entry_93
                0x0000000080006bc0                osEE_tc_isr_dummy_entry_94
                0x0000000080006be0                osEE_tc_isr_dummy_entry_95
                0x0000000080006c00                osEE_tc_isr_dummy_entry_96
                0x0000000080006c20                osEE_tc_isr_dummy_entry_97
                0x0000000080006c40                osEE_tc_isr_dummy_entry_98
                0x0000000080006c60                osEE_tc_isr_dummy_entry_99
                0x0000000080006c80                osEE_tc_isr_dummy_entry_100
                0x0000000080006ca0                osEE_tc_isr_dummy_entry_101
                0x0000000080006cc0                osEE_tc_isr_dummy_entry_102
                0x0000000080006ce0                osEE_tc_isr_dummy_entry_103
                0x0000000080006d00                osEE_tc_isr_dummy_entry_104
                0x0000000080006d20                osEE_tc_isr_dummy_entry_105
                0x0000000080006d40                osEE_tc_isr_dummy_entry_106
                0x0000000080006d60                osEE_tc_isr_dummy_entry_107
                0x0000000080006d80                osEE_tc_isr_dummy_entry_108
                0x0000000080006da0                osEE_tc_isr_dummy_entry_109
                0x0000000080006dc0                osEE_tc_isr_dummy_entry_110
                0x0000000080006de0                osEE_tc_isr_dummy_entry_111
                0x0000000080006e00                osEE_tc_isr_dummy_entry_112
                0x0000000080006e20                osEE_tc_isr_dummy_entry_113
                0x0000000080006e40                osEE_tc_isr_dummy_entry_114
                0x0000000080006e60                osEE_tc_isr_dummy_entry_115
                0x0000000080006e80                osEE_tc_isr_dummy_entry_116
                0x0000000080006ea0                osEE_tc_isr_dummy_entry_117
                0x0000000080006ec0                osEE_tc_isr_dummy_entry_118
                0x0000000080006ee0                osEE_tc_isr_dummy_entry_119
                0x0000000080006f00                osEE_tc_isr_dummy_entry_120
                0x0000000080006f20                osEE_tc_isr_dummy_entry_121
                0x0000000080006f40                osEE_tc_isr_dummy_entry_122
                0x0000000080006f60                osEE_tc_isr_dummy_entry_123
                0x0000000080006f80                osEE_tc_isr_dummy_entry_124
                0x0000000080006fa0                osEE_tc_isr_dummy_entry_125
                0x0000000080006fc0                osEE_tc_isr_dummy_entry_126
                0x0000000080006fe0                osEE_tc_isr_dummy_entry_127
                0x0000000080007000                osEE_tc_isr_dummy_entry_128
                0x0000000080007020                osEE_tc_isr_dummy_entry_129
                0x0000000080007040                osEE_tc_isr_dummy_entry_130
                0x0000000080007060                osEE_tc_isr_dummy_entry_131
                0x0000000080007080                osEE_tc_isr_dummy_entry_132
                0x00000000800070a0                osEE_tc_isr_dummy_entry_133
                0x00000000800070c0                osEE_tc_isr_dummy_entry_134
                0x00000000800070e0                osEE_tc_isr_dummy_entry_135
                0x0000000080007100                osEE_tc_isr_dummy_entry_136
                0x0000000080007120                osEE_tc_isr_dummy_entry_137
                0x0000000080007140                osEE_tc_isr_dummy_entry_138
                0x0000000080007160                osEE_tc_isr_dummy_entry_139
                0x0000000080007180                osEE_tc_isr_dummy_entry_140
                0x00000000800071a0                osEE_tc_isr_dummy_entry_141
                0x00000000800071c0                osEE_tc_isr_dummy_entry_142
                0x00000000800071e0                osEE_tc_isr_dummy_entry_143
                0x0000000080007200                osEE_tc_isr_dummy_entry_144
                0x0000000080007220                osEE_tc_isr_dummy_entry_145
                0x0000000080007240                osEE_tc_isr_dummy_entry_146
                0x0000000080007260                osEE_tc_isr_dummy_entry_147
                0x0000000080007280                osEE_tc_isr_dummy_entry_148
                0x00000000800072a0                osEE_tc_isr_dummy_entry_149
                0x00000000800072c0                osEE_tc_isr_dummy_entry_150
                0x00000000800072e0                osEE_tc_isr_dummy_entry_151
                0x0000000080007300                osEE_tc_isr_dummy_entry_152
                0x0000000080007320                osEE_tc_isr_dummy_entry_153
                0x0000000080007340                osEE_tc_isr_dummy_entry_154
                0x0000000080007360                osEE_tc_isr_dummy_entry_155
                0x0000000080007380                osEE_tc_isr_dummy_entry_156
                0x00000000800073a0                osEE_tc_isr_dummy_entry_157
                0x00000000800073c0                osEE_tc_isr_dummy_entry_158
                0x00000000800073e0                osEE_tc_isr_dummy_entry_159
                0x0000000080007400                osEE_tc_isr_dummy_entry_160
                0x0000000080007420                osEE_tc_isr_dummy_entry_161
                0x0000000080007440                osEE_tc_isr_dummy_entry_162
                0x0000000080007460                osEE_tc_isr_dummy_entry_163
                0x0000000080007480                osEE_tc_isr_dummy_entry_164
                0x00000000800074a0                osEE_tc_isr_dummy_entry_165
                0x00000000800074c0                osEE_tc_isr_dummy_entry_166
                0x00000000800074e0                osEE_tc_isr_dummy_entry_167
                0x0000000080007500                osEE_tc_isr_dummy_entry_168
                0x0000000080007520                osEE_tc_isr_dummy_entry_169
                0x0000000080007540                osEE_tc_isr_dummy_entry_170
                0x0000000080007560                osEE_tc_isr_dummy_entry_171
                0x0000000080007580                osEE_tc_isr_dummy_entry_172
                0x00000000800075a0                osEE_tc_isr_dummy_entry_173
                0x00000000800075c0                osEE_tc_isr_dummy_entry_174
                0x00000000800075e0                osEE_tc_isr_dummy_entry_175
                0x0000000080007600                osEE_tc_isr_dummy_entry_176
                0x0000000080007620                osEE_tc_isr_dummy_entry_177
                0x0000000080007640                osEE_tc_isr_dummy_entry_178
                0x0000000080007660                osEE_tc_isr_dummy_entry_179
                0x0000000080007680                osEE_tc_isr_dummy_entry_180
                0x00000000800076a0                osEE_tc_isr_dummy_entry_181
                0x00000000800076c0                osEE_tc_isr_dummy_entry_182
                0x00000000800076e0                osEE_tc_isr_dummy_entry_183
                0x0000000080007700                osEE_tc_isr_dummy_entry_184
                0x0000000080007720                osEE_tc_isr_dummy_entry_185
                0x0000000080007740                osEE_tc_isr_dummy_entry_186
                0x0000000080007760                osEE_tc_isr_dummy_entry_187
                0x0000000080007780                osEE_tc_isr_dummy_entry_188
                0x00000000800077a0                osEE_tc_isr_dummy_entry_189
                0x00000000800077c0                osEE_tc_isr_dummy_entry_190
                0x00000000800077e0                osEE_tc_isr_dummy_entry_191
                0x0000000080007800                osEE_tc_isr_dummy_entry_192
                0x0000000080007820                osEE_tc_isr_dummy_entry_193
                0x0000000080007840                osEE_tc_isr_dummy_entry_194
                0x0000000080007860                osEE_tc_isr_dummy_entry_195
                0x0000000080007880                osEE_tc_isr_dummy_entry_196
                0x00000000800078a0                osEE_tc_isr_dummy_entry_197
                0x00000000800078c0                osEE_tc_isr_dummy_entry_198
                0x00000000800078e0                osEE_tc_isr_dummy_entry_199
                0x0000000080007900                osEE_tc_isr_dummy_entry_200
                0x0000000080007920                osEE_tc_isr_dummy_entry_201
                0x0000000080007940                osEE_tc_isr_dummy_entry_202
                0x0000000080007960                osEE_tc_isr_dummy_entry_203
                0x0000000080007980                osEE_tc_isr_dummy_entry_204
                0x00000000800079a0                osEE_tc_isr_dummy_entry_205
                0x00000000800079c0                osEE_tc_isr_dummy_entry_206
                0x00000000800079e0                osEE_tc_isr_dummy_entry_207
                0x0000000080007a00                osEE_tc_isr_dummy_entry_208
                0x0000000080007a20                osEE_tc_isr_dummy_entry_209
                0x0000000080007a40                osEE_tc_isr_dummy_entry_210
                0x0000000080007a60                osEE_tc_isr_dummy_entry_211
                0x0000000080007a80                osEE_tc_isr_dummy_entry_212
                0x0000000080007aa0                osEE_tc_isr_dummy_entry_213
                0x0000000080007ac0                osEE_tc_isr_dummy_entry_214
                0x0000000080007ae0                osEE_tc_isr_dummy_entry_215
                0x0000000080007b00                osEE_tc_isr_dummy_entry_216
                0x0000000080007b20                osEE_tc_isr_dummy_entry_217
                0x0000000080007b40                osEE_tc_isr_dummy_entry_218
                0x0000000080007b60                osEE_tc_isr_dummy_entry_219
                0x0000000080007b80                osEE_tc_isr_dummy_entry_220
                0x0000000080007ba0                osEE_tc_isr_dummy_entry_221
                0x0000000080007bc0                osEE_tc_isr_dummy_entry_222
                0x0000000080007be0                osEE_tc_isr_dummy_entry_223
                0x0000000080007c00                osEE_tc_isr_dummy_entry_224
                0x0000000080007c20                osEE_tc_isr_dummy_entry_225
                0x0000000080007c40                osEE_tc_isr_dummy_entry_226
                0x0000000080007c60                osEE_tc_isr_dummy_entry_227
                0x0000000080007c80                osEE_tc_isr_dummy_entry_228
                0x0000000080007ca0                osEE_tc_isr_dummy_entry_229
                0x0000000080007cc0                osEE_tc_isr_dummy_entry_230
                0x0000000080007ce0                osEE_tc_isr_dummy_entry_231
                0x0000000080007d00                osEE_tc_isr_dummy_entry_232
                0x0000000080007d20                osEE_tc_isr_dummy_entry_233
                0x0000000080007d40                osEE_tc_isr_dummy_entry_234
                0x0000000080007d60                osEE_tc_isr_dummy_entry_235
                0x0000000080007d80                osEE_tc_isr_dummy_entry_236
                0x0000000080007da0                osEE_tc_isr_dummy_entry_237
                0x0000000080007dc0                osEE_tc_isr_dummy_entry_238
                0x0000000080007de0                osEE_tc_isr_dummy_entry_239
                0x0000000080007e00                osEE_tc_isr_dummy_entry_240
                0x0000000080007e20                osEE_tc_isr_dummy_entry_241
                0x0000000080007e40                osEE_tc_isr_dummy_entry_242
                0x0000000080007e60                osEE_tc_isr_dummy_entry_243
                0x0000000080007e80                osEE_tc_isr_dummy_entry_244
                0x0000000080007ea0                osEE_tc_isr_dummy_entry_245
                0x0000000080007ec0                osEE_tc_isr_dummy_entry_246
                0x0000000080007ee0                osEE_tc_isr_dummy_entry_247
                0x0000000080007f00                osEE_tc_isr_dummy_entry_248
                0x0000000080007f20                osEE_tc_isr_dummy_entry_249
                0x0000000080007f40                osEE_tc_isr_dummy_entry_250
                0x0000000080007f60                osEE_tc_isr_dummy_entry_251
                0x0000000080007f80                osEE_tc_isr_dummy_entry_252
                0x0000000080007fa0                osEE_tc_isr_dummy_entry_253
                0x0000000080007fc0                osEE_tc_isr_dummy_entry_254
                0x0000000080007fe0                osEE_tc_isr_dummy_entry_255
 *(.*.inttab_cpu0)
                0x0000000080008000                . = ALIGN (0x8)

.text           memory region -> PMU_PFLASH
                0x0000000080008000     0xd9e8
                0x0000000080008000                PROVIDE (__text_start, .)
 *(.text)
 .text          0x0000000080008000       0x2a obj/asw.c.o
                0x0000000080008000                FuncTestTask
                0x0000000080008002                TimerISR
 .text          0x000000008000802a      0x46c obj/bsw.c.o
                0x000000008000802a                delay_ms
                0x0000000080008094                delay_us
                0x0000000080008102                UART_init
                0x0000000080008174                printfSerial
                0x00000000800081e6                printDouble
                0x0000000080008234                initVADCModule
                0x0000000080008252                initVADCGroup
                0x0000000080008284                initVADCChannels
                0x0000000080008302                initADC
                0x0000000080008324                readADCValue
                0x000000008000834a                initPeripheralsAndERU
                0x00000000800083ec                asclin3TxISR
                0x00000000800083f8                main
 .text          0x0000000080008496      0x32c obj/hall_Driver.c.o
                0x0000000080008496                initHall
                0x0000000080008714                getFRHallCnt
                0x000000008000871e                resetFRHallCnt
                0x000000008000872a                getHallCntAvg
                0x0000000080008762                FRHallISR
                0x000000008000877a                FLHallISR
                0x0000000080008792                RRHallISR
                0x00000000800087aa                RLHallISR
 .text          0x00000000800087c2       0x64 obj/illd/Libraries/iLLD/TC27D/Tricore/Gtm/Std/IfxGtm.c.o
                0x00000000800087c2                IfxGtm_disable
                0x00000000800087e6                IfxGtm_enable
                0x000000008000880a                IfxGtm_getSysClkFrequency
 *fill*         0x0000000080008826        0x2 00
 .text          0x0000000080008828      0x414 obj/illd/Libraries/iLLD/TC27D/Tricore/Gtm/Std/IfxGtm_Cmu.c.o
                0x0000000080008828                IfxGtm_Cmu_enableClocks
                0x000000008000882e                IfxGtm_Cmu_getGclkFrequency
                0x0000000080008854                IfxGtm_Cmu_getModuleFrequency
                0x0000000080008858                IfxGtm_Cmu_isClkClockEnabled
                0x0000000080008868                IfxGtm_Cmu_getClkFrequency
                0x0000000080008904                IfxGtm_Cmu_getFxClkFrequency
                0x0000000080008988                IfxGtm_Cmu_isEclkClockEnabled
                0x000000008000899c                IfxGtm_Cmu_getEclkFrequency
                0x00000000800089ec                IfxGtm_Cmu_isFxClockEnabled
                0x00000000800089fa                IfxGtm_Cmu_selectClkInput
                0x0000000080008a34                IfxGtm_Cmu_setClkFrequency
                0x0000000080008ae0                IfxGtm_Cmu_setEclkFrequency
                0x0000000080008b96                IfxGtm_Cmu_setGclkFrequency
 .text          0x0000000080008c3c        0x4 obj/illd/Libraries/iLLD/TC27D/Tricore/Gtm/Std/IfxGtm_Dpll.c.o
                0x0000000080008c3c                IfxGtm_Dpll_getSubIncFrequency
 .text          0x0000000080008c40      0x3d2 obj/illd/Libraries/iLLD/TC27D/Tricore/Gtm/Std/IfxGtm_Tom.c.o
                0x0000000080008c40                IfxGtm_Tom_Ch_clearOneNotification
                0x0000000080008c4e                IfxGtm_Tom_Ch_clearZeroNotification
                0x0000000080008c5c                IfxGtm_Tom_Ch_getClockFrequency
                0x0000000080008c94                IfxGtm_Tom_Ch_getClockSource
                0x0000000080008ca2                IfxGtm_Tom_Ch_getCompareOne
                0x0000000080008cae                IfxGtm_Tom_Ch_getCompareOnePointer
                0x0000000080008cba                IfxGtm_Tom_Ch_getCompareZero
                0x0000000080008cc6                IfxGtm_Tom_Ch_getCompareZeroPointer
                0x0000000080008cd2                IfxGtm_Tom_Ch_getOutputLevel
                0x0000000080008ce2                IfxGtm_Tom_Ch_getSrcPointer
                0x0000000080008cfe                IfxGtm_Tom_Ch_getTgcPointer
                0x0000000080008d10                IfxGtm_Tom_Ch_getTimerPointer
                0x0000000080008d1c                IfxGtm_Tom_Ch_isOneNotification
                0x0000000080008d2c                IfxGtm_Tom_Ch_isZeroNotification
                0x0000000080008d3c                IfxGtm_Tom_Ch_raiseInterruptOne
                0x0000000080008d4a                IfxGtm_Tom_Ch_raiseInterruptZero
                0x0000000080008d58                IfxGtm_Tom_Ch_setClockSource
                0x0000000080008d68                IfxGtm_Tom_Ch_setCompare
                0x0000000080008d78                IfxGtm_Tom_Ch_setCompareOne
                0x0000000080008d84                IfxGtm_Tom_Ch_setCompareOneShadow
                0x0000000080008d90                IfxGtm_Tom_Ch_setCompareShadow
                0x0000000080008da0                IfxGtm_Tom_Ch_setCompareZero
                0x0000000080008dac                IfxGtm_Tom_Ch_setCompareZeroShadow
                0x0000000080008db8                IfxGtm_Tom_Ch_setCounterValue
                0x0000000080008dc4                IfxGtm_Tom_Ch_setGatedCounter
                0x0000000080008de4                IfxGtm_Tom_Ch_setNotification
                0x0000000080008e14                IfxGtm_Tom_Ch_setOneShotMode
                0x0000000080008e2e                IfxGtm_Tom_Ch_setPcm
                0x0000000080008e4c                IfxGtm_Tom_Ch_setResetSource
                0x0000000080008e5c                IfxGtm_Tom_Ch_setSignalLevel
                0x0000000080008e76                IfxGtm_Tom_Ch_setSpe
                0x0000000080008e96                IfxGtm_Tom_Ch_setTriggerOutput
                0x0000000080008ea6                IfxGtm_Tom_Tgc_buildFeature
                0x0000000080008edc                IfxGtm_Tom_Tgc_buildFeatureForChannel
                0x0000000080008efc                IfxGtm_Tom_Tgc_enableChannel
                0x0000000080008f14                IfxGtm_Tom_Tgc_enableChannelOutput
                0x0000000080008f2c                IfxGtm_Tom_Tgc_enableChannelUpdate
                0x0000000080008f3a                IfxGtm_Tom_Tgc_enableChannels
                0x0000000080008f52                IfxGtm_Tom_Tgc_enableChannelsOutput
                0x0000000080008f6a                IfxGtm_Tom_Tgc_enableChannelsTrigger
                0x0000000080008f76                IfxGtm_Tom_Tgc_enableChannelsUpdate
                0x0000000080008f84                IfxGtm_Tom_Tgc_enableTimeTrigger
                0x0000000080008f9a                IfxGtm_Tom_Tgc_resetChannels
                0x0000000080008fba                IfxGtm_Tom_Tgc_setChannelForceUpdate
                0x0000000080008fde                IfxGtm_Tom_Tgc_setChannelsForceUpdate
                0x0000000080008ffe                IfxGtm_Tom_Tgc_setTimeTrigger
                0x000000008000900c                IfxGtm_Tom_Tgc_trigger
 .text          0x0000000080009012      0x202 obj/illd/Libraries/iLLD/TC27D/Tricore/Gtm/Tom/Pwm/IfxGtm_Tom_Pwm.c.o
                0x0000000080009012                IfxGtm_Tom_Pwm_init
                0x000000008000916e                IfxGtm_Tom_Pwm_initConfig
                0x00000000800091c4                IfxGtm_Tom_Pwm_start
                0x00000000800091ec                IfxGtm_Tom_Pwm_stop
 .text          0x0000000080009214      0x5d4 obj/illd/Libraries/iLLD/TC27D/Tricore/Vadc/std/IfxVadc.c.o
                0x0000000080009214                IfxVadc_disableAccess
                0x000000008000924c                IfxVadc_enableAccess
                0x0000000080009284                IfxVadc_configExternalMultiplexerMode
                0x00000000800092ca                IfxVadc_disablePostCalibration
                0x0000000080009306                IfxVadc_enableGroupSync
                0x00000000800093b0                IfxVadc_getAdcAnalogFrequency
                0x00000000800093c8                IfxVadc_getAdcDigitalFrequency
                0x00000000800093e2                IfxVadc_getAdcModuleFrequency
                0x00000000800093e6                IfxVadc_getBackgroundScanStatus
                0x0000000080009400                IfxVadc_getQueueStatus
                0x0000000080009410                IfxVadc_getResultBasedOnRequestSource
                0x00000000800094a4                IfxVadc_getScanStatus
                0x00000000800094ae                IfxVadc_getSrcAddress
                0x00000000800094d6                IfxVadc_initialiseAdcArbiterClock
                0x00000000800094fa                IfxVadc_initialiseAdcConverterClock
                0x000000008000951e                IfxVadc_initializeFAdcD
                0x0000000080009548                IfxVadc_initializeFAdcI
                0x00000000800095ae                IfxVadc_isPostCalibration
                0x0000000080009618                IfxVadc_getChannelConversionTime
                0x00000000800096c2                IfxVadc_resetKernel
                0x0000000080009714                IfxVadc_selectPowerSupplyVoltage
                0x0000000080009738                IfxVadc_setArbiterPriority
                0x000000008000978e                IfxVadc_setScan
                0x00000000800097a2                IfxVadc_startupCalibration
 .text          0x00000000800097e8       0xe6 obj/illd/Libraries/iLLD/TC27D/Tricore/_PinMap/IfxGtm_PinMap.c.o
                0x00000000800097e8                IfxGtm_PinMap_setTimTin
                0x000000008000982e                IfxGtm_PinMap_setAtomTout
                0x000000008000987e                IfxGtm_PinMap_setTomTout
 *fill*         0x00000000800098ce        0x2 00
 .text          0x00000000800098d0      0x450 obj/illd/src/IfxAsclin.c.o
                0x00000000800098d0                IfxAsclin_disableModule
                0x00000000800098ec                IfxAsclin_enableAscErrorFlags
                0x000000008000991a                IfxAsclin_enableModule
                0x0000000080009936                IfxAsclin_getAddress
                0x000000008000994c                IfxAsclin_getFaFrequency
                0x00000000800099c0                IfxAsclin_getIndex
                0x00000000800099e2                IfxAsclin_getPdFrequency
                0x00000000800099fa                IfxAsclin_getOvsFrequency
                0x0000000080009a1e                IfxAsclin_getShiftFrequency
                0x0000000080009a34                IfxAsclin_getSrcPointerEr
                0x0000000080009a48                IfxAsclin_getSrcPointerRx
                0x0000000080009a5c                IfxAsclin_getSrcPointerTx
                0x0000000080009a70                IfxAsclin_read16
                0x0000000080009a82                IfxAsclin_read32
                0x0000000080009a94                IfxAsclin_read8
                0x0000000080009aa6                IfxAsclin_resetModule
                0x0000000080009af2                IfxAsclin_setClockSource
                0x0000000080009b14                IfxAsclin_setBaudrateBitFields
                0x0000000080009b66                IfxAsclin_setBitTiming
                0x0000000080009ce8                IfxAsclin_write16
                0x0000000080009cfc                IfxAsclin_write32
                0x0000000080009d0e                IfxAsclin_write8
 .text          0x0000000080009d20      0x8d0 obj/illd/src/IfxAsclin_Asc.c.o
                0x0000000080009d20                IfxAsclin_Asc_getReadCount
                0x0000000080009d26                IfxAsclin_Asc_getReadEvent
                0x0000000080009d30                IfxAsclin_Asc_getSendCount
                0x0000000080009d36                IfxAsclin_Asc_getTxTimeStamp
                0x0000000080009d3c                IfxAsclin_Asc_getWriteCount
                0x0000000080009d4a                IfxAsclin_Asc_getWriteEvent
                0x0000000080009d54                IfxAsclin_Asc_isrError
                0x0000000080009dc6                IfxAsclin_Asc_resetSendCount
                0x0000000080009dcc                IfxAsclin_Asc_canReadCount
                0x0000000080009dd4                IfxAsclin_Asc_flushTx
                0x0000000080009e70                IfxAsclin_Asc_canWriteCount
                0x0000000080009e78                IfxAsclin_Asc_clearRx
                0x0000000080009e88                IfxAsclin_Asc_clearTx
                0x0000000080009e9c                IfxAsclin_Asc_read
                0x0000000080009eb8                IfxAsclin_Asc_isrTransmit
                0x0000000080009f56                IfxAsclin_Asc_isrReceive
                0x0000000080009fec                IfxAsclin_Asc_blockingRead
                0x000000008000a012                IfxAsclin_Asc_disableModule
                0x000000008000a02e                IfxAsclin_Asc_initModule
                0x000000008000a3dc                IfxAsclin_Asc_initModuleConfig
                0x000000008000a464                IfxAsclin_Asc_initiateTransmission
                0x000000008000a4ac                IfxAsclin_Asc_write
                0x000000008000a50e                IfxAsclin_Asc_blockingWrite
                0x000000008000a52a                IfxAsclin_Asc_stdIfDPipeInit
 .text          0x000000008000a5f0      0x40e obj/illd/src/IfxPort.c.o
                0x000000008000a5f0                IfxPort_getAddress
                0x000000008000a620                IfxPort_getIndex
                0x000000008000a642                IfxPort_resetESR
                0x000000008000a66a                IfxPort_disableEmergencyStop
                0x000000008000a69a                IfxPort_setESR
                0x000000008000a6c4                IfxPort_enableEmergencyStop
                0x000000008000a700                IfxPort_setGroupModeInput
                0x000000008000a790                IfxPort_setGroupModeOutput
                0x000000008000a822                IfxPort_setGroupPadDriver
                0x000000008000a8c6                IfxPort_setPinMode
                0x000000008000a91c                IfxPort_setPinModeLvdsHigh
                0x000000008000a980                IfxPort_setPinModeLvdsMedium
                0x000000008000a9c2                IfxPort_setPinPadDriver
 *fill*         0x000000008000a9fe        0x2 00
 .text          0x000000008000aa00      0xf70 obj/illd/src/IfxScuCcu.c.o
                0x000000008000aa00                IfxScuCcu_calculateSysPllDividers
                0x000000008000aaf8                IfxScuCcu_getOsc0Frequency
                0x000000008000ab06                IfxScuCcu_getOscFrequency
                0x000000008000ab36                IfxScuCcu_getPllErayFrequency
                0x000000008000ab9a                IfxScuCcu_getPllErayVcoFrequency
                0x000000008000abde                IfxScuCcu_getPllFrequency
                0x000000008000ac50                IfxScuCcu_getPllVcoFrequency
                0x000000008000ac94                IfxScuCcu_getSourceFrequency
                0x000000008000acec                IfxScuCcu_getBbbFrequency
                0x000000008000ad64                IfxScuCcu_getMaxFrequency
                0x000000008000add4                IfxScuCcu_getBaud1Frequency
                0x000000008000adf4                IfxScuCcu_getBaud2Frequency
                0x000000008000ae16                IfxScuCcu_getSpbFrequency
                0x000000008000ae8e                IfxScuCcu_getModuleFrequency
                0x000000008000aed8                IfxScuCcu_getSriFrequency
                0x000000008000af52                IfxScuCcu_getCpuFrequency
                0x000000008000af94                IfxScuCcu_getFsi2Frequency
                0x000000008000afca                IfxScuCcu_getFsiFrequency
                0x000000008000b000                IfxScuCcu_init
                0x000000008000b3be                IfxScuCcu_initConfig
                0x000000008000b3d2                IfxScuCcu_initErayPll
                0x000000008000b574                IfxScuCcu_initErayPllConfig
                0x000000008000b586                IfxScuCcu_setCpuFrequency
                0x000000008000b5fc                IfxScuCcu_setGtmFrequency
                0x000000008000b68a                IfxScuCcu_setPll2ErayFrequency
                0x000000008000b6da                IfxScuCcu_setPll2Frequency
                0x000000008000b72a                IfxScuCcu_setSpbFrequency
                0x000000008000b7de                IfxScuCcu_setSriFrequency
                0x000000008000b85e                IfxScuCcu_switchToBackupClock
 .text          0x000000008000b970      0x356 obj/illd/src/IfxScuEru.c.o
                0x000000008000b970                IfxScuEru_clearAllEventFlags
                0x000000008000b982                IfxScuEru_clearEventFlag
                0x000000008000b998                IfxScuEru_clearInputChannelConfiguration
                0x000000008000b9c0                IfxScuEru_clearOutputChannelConfiguration
                0x000000008000b9e8                IfxScuEru_connectTrigger
                0x000000008000ba1e                IfxScuEru_disableAutoClear
                0x000000008000ba44                IfxScuEru_disableFallingEdgeDetection
                0x000000008000ba6a                IfxScuEru_disablePatternDetectionTrigger
                0x000000008000ba90                IfxScuEru_disableRisingEdgeDetection
                0x000000008000bab6                IfxScuEru_disableTriggerPulse
                0x000000008000badc                IfxScuEru_enableAutoClear
                0x000000008000bb02                IfxScuEru_enableFallingEdgeDetection
                0x000000008000bb28                IfxScuEru_enablePatternDetectionTrigger
                0x000000008000bb4e                IfxScuEru_enableRisingEdgeDetection
                0x000000008000bb74                IfxScuEru_enableTriggerPulse
                0x000000008000bb9a                IfxScuEru_getAllEventFlagsStatus
                0x000000008000bba8                IfxScuEru_getEventFlagStatus
                0x000000008000bbba                IfxScuEru_getInputChannelConfiguration
                0x000000008000bbde                IfxScuEru_getOutputChannelConfiguration
                0x000000008000bc02                IfxScuEru_getPatternDetectionResult
                0x000000008000bc14                IfxScuEru_getWholePatternDetectionResult
                0x000000008000bc22                IfxScuEru_selectExternalInput
                0x000000008000bc56                IfxScuEru_setEventFlag
                0x000000008000bc68                IfxScuEru_setFlagPatternDetection
                0x000000008000bc94                IfxScuEru_setInterruptGatingPattern
 .text          0x000000008000bcc6      0x53a obj/illd/src/IfxScuWdt.c.o
                0x000000008000bcc6                IfxScuWdt_changeCpuWatchdogPassword
                0x000000008000bcfe                IfxScuWdt_changeCpuWatchdogReload
                0x000000008000bd36                IfxScuWdt_changeSafetyWatchdogPassword
                0x000000008000bd6a                IfxScuWdt_changeSafetyWatchdogReload
                0x000000008000bd9e                IfxScuWdt_clearCpuEndinit
                0x000000008000bdd4                IfxScuWdt_clearSafetyEndinit
                0x000000008000be06                IfxScuWdt_disableCpuWatchdog
                0x000000008000be60                IfxScuWdt_disableSafetyWatchdog
                0x000000008000bed0                IfxScuWdt_enableCpuWatchdog
                0x000000008000bf2c                IfxScuWdt_enableSafetyWatchdog
                0x000000008000bf9e                IfxScuWdt_getCpuWatchdogPassword
                0x000000008000bfbe                IfxScuWdt_getCpuWatchdogEndInit
                0x000000008000bfda                IfxScuWdt_getSafetyWatchdogPassword
                0x000000008000bfee                IfxScuWdt_initConfig
                0x000000008000c008                IfxScuWdt_setCpuEndinit
                0x000000008000c03e                IfxScuWdt_initCpuWatchdog
                0x000000008000c0dc                IfxScuWdt_serviceCpuWatchdog
                0x000000008000c0e0                IfxScuWdt_setSafetyEndinit
                0x000000008000c112                IfxScuWdt_initSafetyWatchdog
                0x000000008000c1bc                IfxScuWdt_serviceSafetyWatchdog
                0x000000008000c1c0                IfxScuWdt_enableWatchdogWithDebugger
 .text          0x000000008000c200      0xb70 obj/illd/src/IfxVadc_Adc.c.o
                0x000000008000c200                IfxVadc_Adc_deInitGroup
                0x000000008000c226                IfxVadc_Adc_disableModule
                0x000000008000c242                IfxVadc_Adc_getChannelConfig
                0x000000008000c34a                IfxVadc_Adc_getChannelConversionTime
                0x000000008000c382                IfxVadc_Adc_getGroupConfig
                0x000000008000c5c0                IfxVadc_Adc_initChannel
                0x000000008000c7ac                IfxVadc_Adc_initChannelConfig
                0x000000008000c7c2                IfxVadc_Adc_initGroup
                0x000000008000cb4c                IfxVadc_Adc_initGroupConfig
                0x000000008000cb7a                IfxVadc_Adc_initModule
                0x000000008000cc62                IfxVadc_Adc_initModuleConfig
                0x000000008000cc9c                IfxVadc_Adc_initExternalMultiplexerModeConfig
                0x000000008000ccde                IfxVadc_Adc_initExternalMultiplexerMode
 .text          0x000000008000cd70      0x1be obj/illd/src/Ifx_CircularBuffer.c.o
                0x000000008000cd70                Ifx_CircularBuffer_get32
                0x000000008000cd90                Ifx_CircularBuffer_get16
                0x000000008000cdb2                Ifx_CircularBuffer_addDataIncr
                0x000000008000cdd2                Ifx_CircularBuffer_read8
                0x000000008000ce30                Ifx_CircularBuffer_read32
                0x000000008000ce80                Ifx_CircularBuffer_write8
                0x000000008000cede                Ifx_CircularBuffer_write32
 .text          0x000000008000cf2e      0x55c obj/illd/src/Ifx_Fifo.c.o
                0x000000008000cf2e                Ifx_Fifo_destroy
                0x000000008000cf32                Ifx_Fifo_init
                0x000000008000cf6c                Ifx_Fifo_create
                0x000000008000cf8e                Ifx_Fifo_canReadCount
                0x000000008000d068                Ifx_Fifo_read
                0x000000008000d1de                Ifx_Fifo_clear
                0x000000008000d214                Ifx_Fifo_canWriteCount
                0x000000008000d304                Ifx_Fifo_write
 *fill*         0x000000008000d48a        0x2 00
 .text          0x000000008000d48c      0x7f8 obj/motor_driver.c.o
                0x000000008000d4de                init_pwms
                0x000000008000d6de                initMotor
                0x000000008000d964                motor_run_forward
                0x000000008000da2c                motor_run_backward
                0x000000008000daf4                motor_stop
                0x000000008000dbc2                set_motor_power
                0x000000008000dc70                _setDutyCycle
 .text          0x000000008000dc84      0x858 obj/shiparker_App.c.o
                0x000000008000dc84                AppTimerISR
                0x000000008000dc92                startShiParkerApp
                0x000000008000dd22                exitShiParkerApp
                0x000000008000dd7c                turn90
                0x000000008000dea6                calculateCurrentPos
                0x000000008000df1c                FuncWallFollowTask
                0x000000008000e0ea                makePacket
                0x000000008000e1fe                FuncPacketSendTask
                0x000000008000e212                updateStatus
                0x000000008000e2c8                handleError
                0x000000008000e366                FuncShiParkerAppTask
                0x000000008000e488                FuncAvoidObstacleTask
 .text          0x000000008000e4dc      0x25c obj/steering_Pid.c.o
                0x000000008000e4dc                get_time_us
                0x000000008000e4f2                get_delta_time
                0x000000008000e524                get_position
                0x000000008000e53e                wall_follow_control
 .text          0x000000008000e738      0x3c8 obj/uart_Driver.c.o
                0x000000008000e738                initUartDriver
                0x000000008000e7ba                myprintfSerial
                0x000000008000e828                asclin0TxISR
                0x000000008000e834                calculateChecksum
                0x000000008000e848                serializePacket
                0x000000008000e866                sendPacket
                0x000000008000e8ae                deserializePacket
                0x000000008000e8ba                readPacket
                0x000000008000ead8                asclin0RxISR
 .text          0x000000008000eb00      0x1e4 obj/ultrasonic_Driver.c.o
                0x000000008000eb00                initUltrasonic
                0x000000008000eb54                sendTrigger
                0x000000008000ebba                measureEchoTick
                0x000000008000ec88                calculateDistanceCm
                0x000000008000ecc6                getUltrasonic
 .text          0x000000008000ece4      0x46c C:\Users\USER\Desktop\AUTODR~1\TC275\erika\lib\libee.a(ee_tc_cstart.c.o)
                0x000000008000ece4                osEE_tc_core0_start
 .text          0x000000008000f150      0x4d0 C:\Users\USER\Desktop\AUTODR~1\TC275\erika\lib\libee.a(ee_tc_system.c.o)
                0x000000008000f1a4                osEE_tc_set_pll_fsource
                0x000000008000f3d2                osEE_tc_get_fsource
                0x000000008000f476                osEE_tc_stm_set_clockpersec
                0x000000008000f4aa                osEE_tc_stm_set_sr0
                0x000000008000f52e                osEE_tc_stm_set_sr0_next_match
                0x000000008000f54c                osEE_tc_stm_set_sr1
                0x000000008000f5da                osEE_tc_stm_set_sr1_next_match
                0x000000008000f5f8                osEE_tc_delay
 .text          0x000000008000f620        0xe C:\Users\USER\Desktop\AUTODR~1\TC275\erika\lib\libee.a(ee_tc_intvec.c.o)
 *fill*         0x000000008000f62e        0x2 00
 .text          0x000000008000f630      0xbb8 C:\Users\USER\Desktop\AUTODR~1\TC275\erika\lib\libee.a(ee_oo_api_osek.c.o)
                0x000000008000f64e                DisableAllInterrupts
                0x000000008000f664                EnableAllInterrupts
                0x000000008000f680                SuspendAllInterrupts
                0x000000008000f6c2                ResumeAllInterrupts
                0x000000008000f6e8                SuspendOSInterrupts
                0x000000008000f744                ResumeOSInterrupts
                0x000000008000f780                StartOS
                0x000000008000f82c                GetActiveApplicationMode
                0x000000008000f846                ActivateTask
                0x000000008000f8ca                ChainTask
                0x000000008000f9a0                TerminateTask
                0x000000008000f9fa                Schedule
                0x000000008000fa6e                GetResource
                0x000000008000fb20                ReleaseResource
                0x000000008000fc0c                ShutdownOS
                0x000000008000fc70                GetTaskID
                0x000000008000fcc8                GetTaskState
                0x000000008000fd40                SetRelAlarm
                0x000000008000fdae                SetAbsAlarm
                0x000000008000fe1c                CancelAlarm
                0x000000008000fe82                GetAlarm
                0x000000008000fef4                GetAlarmBase
                0x000000008000ff2a                WaitEvent
                0x000000008000ffa4                SetEvent
                0x000000008001003a                GetEvent
                0x000000008001006c                ClearEvent
                0x00000000800100c4                GetCounterValue
                0x00000000800100f6                GetElapsedValue
                0x0000000080010148                IncrementCounter
                0x00000000800101ce                GetISRID
 .text          0x00000000800101e8       0xf8 C:\Users\USER\Desktop\AUTODR~1\TC275\erika\lib\libee.a(ee_oo_sched_entry_points.c.o)
                0x000000008001020a                osEE_scheduler_task_wrapper_restore
                0x0000000080010214                osEE_scheduler_task_wrapper_run
                0x00000000800102be                osEE_idle_hook_wrapper
 .text          0x00000000800102e0       0xec C:\Users\USER\Desktop\AUTODR~1\TC275\erika\lib\libee.a(ee_oo_scheduler.c.o)
                0x00000000800102e0                osEE_scheduler_core_rq_preempt_stk
                0x0000000080010350                osEE_sn_priority_insert
                0x0000000080010398                osEE_scheduler_rq_insert
                0x00000000800103a6                osEE_scheduler_core_pop_running
 .text          0x00000000800103cc       0x7a C:\Users\USER\Desktop\AUTODR~1\TC275\erika\lib\libee.a(ee_oo_kernel.c.o)
                0x00000000800103cc                osEE_task_activated
                0x00000000800103e4                osEE_task_end
                0x0000000080010402                osEE_task_event_set_mask
                0x0000000080010424                osEE_activate_isr2
 .text          0x0000000080010446      0x1c0 C:\Users\USER\Desktop\AUTODR~1\TC275\erika\lib\libee.a(ee_oo_sched_partitioned.c.o)
                0x0000000080010446                osEE_scheduler_task_activated
                0x00000000800104ae                osEE_scheduler_task_insert
                0x00000000800104dc                osEE_scheduler_task_unblocked
                0x0000000080010518                osEE_scheduler_task_terminated
                0x00000000800105a2                osEE_scheduler_task_preemption_point
                0x00000000800105c8                osEE_scheduler_task_set_running
 *fill*         0x0000000080010606        0x2 00
 .text          0x0000000080010608      0x1b4 C:\Users\USER\Desktop\AUTODR~1\TC275\erika\lib\libee.a(ee_oo_counter.c.o)
                0x0000000080010608                osEE_counter_insert_abs_trigger
                0x000000008001066a                osEE_counter_insert_rel_trigger
                0x000000008001068c                osEE_counter_cancel_trigger
                0x00000000800106bc                osEE_counter_increment
 .text          0x00000000800107bc       0xca C:\Users\USER\Desktop\AUTODR~1\TC275\erika\lib\libee.a(ee_oo_alarm.c.o)
                0x00000000800107bc                osEE_alarm_set_rel
                0x0000000080010800                osEE_alarm_set_abs
                0x0000000080010828                osEE_alarm_cancel
                0x0000000080010854                osEE_alarm_get
 .text          0x0000000080010886       0x6e C:\Users\USER\Desktop\AUTODR~1\TC275\erika\lib\libee.a(ee_std_change_context.c.o)
                0x0000000080010886                osEE_change_context_from_running
                0x00000000800108ae                osEE_change_context_from_task_end
                0x00000000800108ce                osEE_idle_task_terminate
 .text          0x00000000800108f4       0x6a C:\Users\USER\Desktop\AUTODR~1\TC275\erika\lib\libee.a(ee_tc_hal.c.o)
                0x00000000800108f4                osEE_cpu_startos
 .text          0x000000008001095e      0x134 C:\Users\USER\Desktop\AUTODR~1\TC275\erika\lib\libee.a(ee_tc_ctx.c.o)
                0x0000000080010980                osEE_hal_save_ctx_and_restore_ctx
                0x00000000800109a4                osEE_hal_restore_ctx
                0x00000000800109be                osEE_hal_save_ctx_and_ready2stacked
                0x00000000800109e2                osEE_hal_ready2stacked
                0x0000000080010a0e                osEE_tc_change_context_from_isr2_end
                0x0000000080010a2c                osEE_hal_terminate_ctx
 *(.text.*)
 .text.libgcc   0x0000000080010a92       0x26 c:/hightec/toolchains/tricore/v4.9.3.0-infineon-1.0/bin/../lib/gcc/tricore/4.9.4/tc161\libgcc.a(_lshrdi3.o)
                0x0000000080010a92                __lshrdi3
 .text.__fixunsdfsi
                0x0000000080010ab8       0x30 c:/hightec/toolchains/tricore/v4.9.3.0-infineon-1.0/bin/../lib/gcc/tricore/4.9.4/tc161\libgcc.a(_fixunsdfsi.o)
                0x0000000080010ab8                __fixunsdfsi
 .text.__floatundidf
                0x0000000080010ae8       0x2c c:/hightec/toolchains/tricore/v4.9.3.0-infineon-1.0/bin/../lib/gcc/tricore/4.9.4/tc161\libgcc.a(_floatundidf.o)
                0x0000000080010ae8                __floatundidf
 .text.__extendsfdf2
                0x0000000080010b14       0x32 c:/hightec/toolchains/tricore/v4.9.3.0-infineon-1.0/bin/../lib/gcc/tricore/4.9.4/tc161\libgcc.a(_sf_to_df.o)
                0x0000000080010b14                __extendsfdf2
 .text._fpadd_parts
                0x0000000080010b46      0x19c c:/hightec/toolchains/tricore/v4.9.3.0-infineon-1.0/bin/../lib/gcc/tricore/4.9.4/tc161\libgcc.a(_addsub_df.o)
 .text.__adddf3
                0x0000000080010ce2       0x38 c:/hightec/toolchains/tricore/v4.9.3.0-infineon-1.0/bin/../lib/gcc/tricore/4.9.4/tc161\libgcc.a(_addsub_df.o)
                0x0000000080010ce2                __adddf3
 .text.__subdf3
                0x0000000080010d1a       0x40 c:/hightec/toolchains/tricore/v4.9.3.0-infineon-1.0/bin/../lib/gcc/tricore/4.9.4/tc161\libgcc.a(_addsub_df.o)
                0x0000000080010d1a                __subdf3
 .text.__muldf3
                0x0000000080010d5a      0x1a4 c:/hightec/toolchains/tricore/v4.9.3.0-infineon-1.0/bin/../lib/gcc/tricore/4.9.4/tc161\libgcc.a(_mul_df.o)
                0x0000000080010d5a                __muldf3
 .text.__divdf3
                0x0000000080010efe      0x118 c:/hightec/toolchains/tricore/v4.9.3.0-infineon-1.0/bin/../lib/gcc/tricore/4.9.4/tc161\libgcc.a(_div_df.o)
                0x0000000080010efe                __divdf3
 .text.__gtdf2  0x0000000080011016       0x40 c:/hightec/toolchains/tricore/v4.9.3.0-infineon-1.0/bin/../lib/gcc/tricore/4.9.4/tc161\libgcc.a(_gt_df.o)
                0x0000000080011016                __gtdf2
 .text.__gedf2  0x0000000080011056       0x40 c:/hightec/toolchains/tricore/v4.9.3.0-infineon-1.0/bin/../lib/gcc/tricore/4.9.4/tc161\libgcc.a(_ge_df.o)
                0x0000000080011056                __gedf2
 .text.__ltdf2  0x0000000080011096       0x40 c:/hightec/toolchains/tricore/v4.9.3.0-infineon-1.0/bin/../lib/gcc/tricore/4.9.4/tc161\libgcc.a(_lt_df.o)
                0x0000000080011096                __ltdf2
 .text.__floatsidf
                0x00000000800110d6       0x48 c:/hightec/toolchains/tricore/v4.9.3.0-infineon-1.0/bin/../lib/gcc/tricore/4.9.4/tc161\libgcc.a(_si_to_df.o)
                0x00000000800110d6                __floatsidf
 .text.__fixdfsi
                0x000000008001111e       0x4e c:/hightec/toolchains/tricore/v4.9.3.0-infineon-1.0/bin/../lib/gcc/tricore/4.9.4/tc161\libgcc.a(_df_to_si.o)
                0x000000008001111e                __fixdfsi
 .text.__make_dp
                0x000000008001116c       0x1e c:/hightec/toolchains/tricore/v4.9.3.0-infineon-1.0/bin/../lib/gcc/tricore/4.9.4/tc161\libgcc.a(_make_df.o)
                0x000000008001116c                __make_dp
 .text.__truncdfsf2
                0x000000008001118a       0x3c c:/hightec/toolchains/tricore/v4.9.3.0-infineon-1.0/bin/../lib/gcc/tricore/4.9.4/tc161\libgcc.a(_df_to_sf.o)
                0x000000008001118a                __truncdfsf2
 .text.__floatunsidf
                0x00000000800111c6       0x32 c:/hightec/toolchains/tricore/v4.9.3.0-infineon-1.0/bin/../lib/gcc/tricore/4.9.4/tc161\libgcc.a(_usi_to_df.o)
                0x00000000800111c6                __floatunsidf
 .text.__udivdi3
                0x00000000800111f8       0xa0 c:/hightec/toolchains/tricore/v4.9.3.0-infineon-1.0/bin/../lib/gcc/tricore/4.9.4/tc161\libgcc.a(udivdi3.o)
                0x00000000800111f8                __udivdi3
 .text.libgcc   0x0000000080011298       0x1a c:/hightec/toolchains/tricore/v4.9.3.0-infineon-1.0/bin/../lib/gcc/tricore/4.9.4/tc161\libgcc.a(_ashldi3.o)
                0x0000000080011298                __ashldi3
 .text.__unpack_f
                0x00000000800112b2       0x7a c:/hightec/toolchains/tricore/v4.9.3.0-infineon-1.0/bin/../lib/gcc/tricore/4.9.4/tc161\libgcc.a(_unpack_sf.o)
                0x00000000800112b2                __unpack_f
 .text.__make_fp
                0x000000008001132c       0x16 c:/hightec/toolchains/tricore/v4.9.3.0-infineon-1.0/bin/../lib/gcc/tricore/4.9.4/tc161\libgcc.a(_make_sf.o)
                0x000000008001132c                __make_fp
 .text.__pack_d
                0x0000000080011342      0x112 c:/hightec/toolchains/tricore/v4.9.3.0-infineon-1.0/bin/../lib/gcc/tricore/4.9.4/tc161\libgcc.a(_pack_df.o)
                0x0000000080011342                __pack_d
 .text.__unpack_d
                0x0000000080011454       0xac c:/hightec/toolchains/tricore/v4.9.3.0-infineon-1.0/bin/../lib/gcc/tricore/4.9.4/tc161\libgcc.a(_unpack_df.o)
                0x0000000080011454                __unpack_d
 .text.__fpcmp_parts_d
                0x0000000080011500       0xa6 c:/hightec/toolchains/tricore/v4.9.3.0-infineon-1.0/bin/../lib/gcc/tricore/4.9.4/tc161\libgcc.a(_fpcmp_parts_df.o)
                0x0000000080011500                __fpcmp_parts_d
 .text.__udiv6432
                0x00000000800115a6       0x9c c:/hightec/toolchains/tricore/v4.9.3.0-infineon-1.0/bin/../lib/gcc/tricore/4.9.4/tc161\libgcc.a(udiv6432.o)
                0x00000000800115a6                __udiv6432
 .text.__pack_f
                0x0000000080011642       0xc6 c:/hightec/toolchains/tricore/v4.9.3.0-infineon-1.0/bin/../lib/gcc/tricore/4.9.4/tc161\libgcc.a(_pack_sf.o)
                0x0000000080011642                __pack_f
 .text.malloc   0x0000000080011708        0xc c:/hightec/toolchains/tricore/v4.9.3.0-infineon-1.0/bin/../lib/gcc/tricore/4.9.4/../../../../tricore/lib/tc161\libc.a(lib_a-malloc.o)
                0x0000000080011708                malloc
 .text.free     0x0000000080011714        0xe c:/hightec/toolchains/tricore/v4.9.3.0-infineon-1.0/bin/../lib/gcc/tricore/4.9.4/../../../../tricore/lib/tc161\libc.a(lib_a-malloc.o)
                0x0000000080011714                free
 .text._malloc_r
                0x0000000080011722      0x49a c:/hightec/toolchains/tricore/v4.9.3.0-infineon-1.0/bin/../lib/gcc/tricore/4.9.4/../../../../tricore/lib/tc161\libc.a(lib_a-mallocr.o)
                0x0000000080011722                _malloc_r
 .text.__malloc_lock
                0x0000000080011bbc        0x2 c:/hightec/toolchains/tricore/v4.9.3.0-infineon-1.0/bin/../lib/gcc/tricore/4.9.4/../../../../tricore/lib/tc161\libc.a(lib_a-mlock.o)
                0x0000000080011bbc                __malloc_lock
 .text.__malloc_unlock
                0x0000000080011bbe        0x2 c:/hightec/toolchains/tricore/v4.9.3.0-infineon-1.0/bin/../lib/gcc/tricore/4.9.4/../../../../tricore/lib/tc161\libc.a(lib_a-mlock.o)
                0x0000000080011bbe                __malloc_unlock
 .text._sbrk_r  0x0000000080011bc0       0x1e c:/hightec/toolchains/tricore/v4.9.3.0-infineon-1.0/bin/../lib/gcc/tricore/4.9.4/../../../../tricore/lib/tc161\libc.a(lib_a-sbrkr.o)
                0x0000000080011bc0                _sbrk_r
 .text.strlen   0x0000000080011bde       0x14 c:/hightec/toolchains/tricore/v4.9.3.0-infineon-1.0/bin/../lib/gcc/tricore/4.9.4/../../../../tricore/lib/tc161\libc.a(lib_a-strlen.o)
                0x0000000080011bde                strlen
 .text._vsnprintf_r
                0x0000000080011bf2       0x4a c:/hightec/toolchains/tricore/v4.9.3.0-infineon-1.0/bin/../lib/gcc/tricore/4.9.4/../../../../tricore/lib/tc161\libc.a(lib_a-vsnprintf.o)
                0x0000000080011bf2                _vsnprintf_r
 .text.vsnprintf
                0x0000000080011c3c       0x16 c:/hightec/toolchains/tricore/v4.9.3.0-infineon-1.0/bin/../lib/gcc/tricore/4.9.4/../../../../tricore/lib/tc161\libc.a(lib_a-vsnprintf.o)
                0x0000000080011c3c                vsnprintf
 .text._malloc_trim_r
                0x0000000080011c52       0xba c:/hightec/toolchains/tricore/v4.9.3.0-infineon-1.0/bin/../lib/gcc/tricore/4.9.4/../../../../tricore/lib/tc161\libc.a(lib_a-freer.o)
                0x0000000080011c52                _malloc_trim_r
 .text._free_r  0x0000000080011d0c      0x1ac c:/hightec/toolchains/tricore/v4.9.3.0-infineon-1.0/bin/../lib/gcc/tricore/4.9.4/../../../../tricore/lib/tc161\libc.a(lib_a-freer.o)
                0x0000000080011d0c                _free_r
 .text._svfprintf_r
                0x0000000080011eb8     0x11a4 c:/hightec/toolchains/tricore/v4.9.3.0-infineon-1.0/bin/../lib/gcc/tricore/4.9.4/../../../../tricore/lib/tc161\libc.a(lib_a-svfprintf.o)
                0x0000000080011eb8                _svfprintf_r
 .text.quorem   0x000000008001305c      0x11a c:/hightec/toolchains/tricore/v4.9.3.0-infineon-1.0/bin/../lib/gcc/tricore/4.9.4/../../../../tricore/lib/tc161\libc.a(lib_a-dtoa.o)
 *fill*         0x0000000080013176        0x2 00
 .text._dtoa_r  0x0000000080013178      0xcd4 c:/hightec/toolchains/tricore/v4.9.3.0-infineon-1.0/bin/../lib/gcc/tricore/4.9.4/../../../../tricore/lib/tc161\libc.a(lib_a-dtoa.o)
                0x0000000080013178                _dtoa_r
 .text._localeconv_r
                0x0000000080013e4c        0xa c:/hightec/toolchains/tricore/v4.9.3.0-infineon-1.0/bin/../lib/gcc/tricore/4.9.4/../../../../tricore/lib/tc161\libc.a(lib_a-locale.o)
                0x0000000080013e4c                _localeconv_r
 .text.memchr   0x0000000080013e56       0x18 c:/hightec/toolchains/tricore/v4.9.3.0-infineon-1.0/bin/../lib/gcc/tricore/4.9.4/../../../../tricore/lib/tc161\libc.a(lib_a-memchr.o)
                0x0000000080013e56                memchr
 .text.memcpy   0x0000000080013e6e       0x1c c:/hightec/toolchains/tricore/v4.9.3.0-infineon-1.0/bin/../lib/gcc/tricore/4.9.4/../../../../tricore/lib/tc161\libc.a(lib_a-memcpy.o)
                0x0000000080013e6e                memcpy
 .text._Balloc  0x0000000080013e8a       0x56 c:/hightec/toolchains/tricore/v4.9.3.0-infineon-1.0/bin/../lib/gcc/tricore/4.9.4/../../../../tricore/lib/tc161\libc.a(lib_a-mprec.o)
                0x0000000080013e8a                _Balloc
 .text._Bfree   0x0000000080013ee0       0x12 c:/hightec/toolchains/tricore/v4.9.3.0-infineon-1.0/bin/../lib/gcc/tricore/4.9.4/../../../../tricore/lib/tc161\libc.a(lib_a-mprec.o)
                0x0000000080013ee0                _Bfree
 .text.__multadd
                0x0000000080013ef2       0x82 c:/hightec/toolchains/tricore/v4.9.3.0-infineon-1.0/bin/../lib/gcc/tricore/4.9.4/../../../../tricore/lib/tc161\libc.a(lib_a-mprec.o)
                0x0000000080013ef2                __multadd
 .text.__hi0bits
                0x0000000080013f74       0x42 c:/hightec/toolchains/tricore/v4.9.3.0-infineon-1.0/bin/../lib/gcc/tricore/4.9.4/../../../../tricore/lib/tc161\libc.a(lib_a-mprec.o)
                0x0000000080013f74                __hi0bits
 .text.__lo0bits
                0x0000000080013fb6       0x66 c:/hightec/toolchains/tricore/v4.9.3.0-infineon-1.0/bin/../lib/gcc/tricore/4.9.4/../../../../tricore/lib/tc161\libc.a(lib_a-mprec.o)
                0x0000000080013fb6                __lo0bits
 .text.__i2b    0x000000008001401c       0x10 c:/hightec/toolchains/tricore/v4.9.3.0-infineon-1.0/bin/../lib/gcc/tricore/4.9.4/../../../../tricore/lib/tc161\libc.a(lib_a-mprec.o)
                0x000000008001401c                __i2b
 .text.__multiply
                0x000000008001402c      0x11a c:/hightec/toolchains/tricore/v4.9.3.0-infineon-1.0/bin/../lib/gcc/tricore/4.9.4/../../../../tricore/lib/tc161\libc.a(lib_a-mprec.o)
                0x000000008001402c                __multiply
 .text.__pow5mult
                0x0000000080014146       0x7c c:/hightec/toolchains/tricore/v4.9.3.0-infineon-1.0/bin/../lib/gcc/tricore/4.9.4/../../../../tricore/lib/tc161\libc.a(lib_a-mprec.o)
                0x0000000080014146                __pow5mult
 .text.__lshift
                0x00000000800141c2       0xba c:/hightec/toolchains/tricore/v4.9.3.0-infineon-1.0/bin/../lib/gcc/tricore/4.9.4/../../../../tricore/lib/tc161\libc.a(lib_a-mprec.o)
                0x00000000800141c2                __lshift
 .text.__mcmp   0x000000008001427c       0x42 c:/hightec/toolchains/tricore/v4.9.3.0-infineon-1.0/bin/../lib/gcc/tricore/4.9.4/../../../../tricore/lib/tc161\libc.a(lib_a-mprec.o)
                0x000000008001427c                __mcmp
 .text.__mdiff  0x00000000800142be       0xca c:/hightec/toolchains/tricore/v4.9.3.0-infineon-1.0/bin/../lib/gcc/tricore/4.9.4/../../../../tricore/lib/tc161\libc.a(lib_a-mprec.o)
                0x00000000800142be                __mdiff
 .text.__d2b    0x0000000080014388       0xa8 c:/hightec/toolchains/tricore/v4.9.3.0-infineon-1.0/bin/../lib/gcc/tricore/4.9.4/../../../../tricore/lib/tc161\libc.a(lib_a-mprec.o)
                0x0000000080014388                __d2b
 .text.__fpclassifyd
                0x0000000080014430       0x42 c:/hightec/toolchains/tricore/v4.9.3.0-infineon-1.0/bin/../lib/gcc/tricore/4.9.4/../../../../tricore/lib/tc161\libc.a(lib_a-s_fpclassify.o)
                0x0000000080014430                __fpclassifyd
 .text.__ssprint_r
                0x0000000080014472       0xf0 c:/hightec/toolchains/tricore/v4.9.3.0-infineon-1.0/bin/../lib/gcc/tricore/4.9.4/../../../../tricore/lib/tc161\libc.a(lib_a-svfiprintf.o)
                0x0000000080014472                __ssprint_r
 .text._calloc_r
                0x0000000080014562       0x62 c:/hightec/toolchains/tricore/v4.9.3.0-infineon-1.0/bin/../lib/gcc/tricore/4.9.4/../../../../tricore/lib/tc161\libc.a(lib_a-callocr.o)
                0x0000000080014562                _calloc_r
 .text.memmove  0x00000000800145c4       0x50 c:/hightec/toolchains/tricore/v4.9.3.0-infineon-1.0/bin/../lib/gcc/tricore/4.9.4/../../../../tricore/lib/tc161\libc.a(lib_a-memmove.o)
                0x00000000800145c4                memmove
 .text.memset   0x0000000080014614       0x10 c:/hightec/toolchains/tricore/v4.9.3.0-infineon-1.0/bin/../lib/gcc/tricore/4.9.4/../../../../tricore/lib/tc161\libc.a(lib_a-memset.o)
                0x0000000080014614                memset
 .text._realloc_r
                0x0000000080014624      0x3f0 c:/hightec/toolchains/tricore/v4.9.3.0-infineon-1.0/bin/../lib/gcc/tricore/4.9.4/../../../../tricore/lib/tc161\libc.a(lib_a-reallocr.o)
                0x0000000080014624                _realloc_r
 .text._exit    0x0000000080014a14       0x10 c:/hightec/toolchains/tricore/v4.9.3.0-infineon-1.0/bin/../lib/gcc/tricore/4.9.4/../../../../tricore/lib/tc161\libos.a(libos_exit.o)
                0x0000000080014a14                _exit
 .text.sbrk     0x0000000080014a24       0x3c c:/hightec/toolchains/tricore/v4.9.3.0-infineon-1.0/bin/../lib/gcc/tricore/4.9.4/../../../../tricore/lib/tc161\libos.a(libos_sbrk.o)
                0x0000000080014a24                sbrk
 .text.__errno  0x0000000080014a60        0xa c:/hightec/toolchains/tricore/v4.9.3.0-infineon-1.0/bin/../lib/gcc/tricore/4.9.4/../../../../tricore/lib/tc161\libos.a(libos.o)
                0x0000000080014a60                __errno
 .text.abort    0x0000000080014a6a       0x12 c:/hightec/toolchains/tricore/v4.9.3.0-infineon-1.0/bin/../lib/gcc/tricore/4.9.4/../../../../tricore/lib/tc161\libos.a(libos_abort.o)
                0x0000000080014a6a                abort
 .text.atan     0x0000000080014a7c      0x39e c:/hightec/toolchains/tricore/v4.9.3.0-infineon-1.0/bin/../lib/gcc/tricore/4.9.4/../../../../tricore/lib/tc161\libm.a(lib_a-s_atan.o)
                0x0000000080014a7c                atan
 .text.fabs     0x0000000080014e1a        0xa c:/hightec/toolchains/tricore/v4.9.3.0-infineon-1.0/bin/../lib/gcc/tricore/4.9.4/../../../../tricore/lib/tc161\libm.a(lib_a-s_fabs.o)
                0x0000000080014e1a                fabs
 .text.sincosf  0x0000000080014e24       0x16 c:/hightec/toolchains/tricore/v4.9.3.0-infineon-1.0/bin/../lib/gcc/tricore/4.9.4/../../../../tricore/lib/tc161\libm.a(lib_a-wf_sincos.o)
                0x0000000080014e24                sincosf
 .text.cosf     0x0000000080014e3a       0x58 c:/hightec/toolchains/tricore/v4.9.3.0-infineon-1.0/bin/../lib/gcc/tricore/4.9.4/../../../../tricore/lib/tc161\libm.a(lib_a-sf_cos.o)
                0x0000000080014e3a                cosf
 .text.sinf     0x0000000080014e92       0x5a c:/hightec/toolchains/tricore/v4.9.3.0-infineon-1.0/bin/../lib/gcc/tricore/4.9.4/../../../../tricore/lib/tc161\libm.a(lib_a-sf_sin.o)
                0x0000000080014e92                sinf
 .text.__ieee754_rem_pio2f
                0x0000000080014eec      0x24a c:/hightec/toolchains/tricore/v4.9.3.0-infineon-1.0/bin/../lib/gcc/tricore/4.9.4/../../../../tricore/lib/tc161\libm.a(lib_a-ef_rem_pio2.o)
                0x0000000080014eec                __ieee754_rem_pio2f
 .text.__kernel_cosf
                0x0000000080015136       0xbc c:/hightec/toolchains/tricore/v4.9.3.0-infineon-1.0/bin/../lib/gcc/tricore/4.9.4/../../../../tricore/lib/tc161\libm.a(lib_a-kf_cos.o)
                0x0000000080015136                __kernel_cosf
 *fill*         0x00000000800151f2        0x2 00
 .text.__kernel_rem_pio2f
                0x00000000800151f4      0x568 c:/hightec/toolchains/tricore/v4.9.3.0-infineon-1.0/bin/../lib/gcc/tricore/4.9.4/../../../../tricore/lib/tc161\libm.a(lib_a-kf_rem_pio2.o)
                0x00000000800151f4                __kernel_rem_pio2f
 .text.__kernel_sinf
                0x000000008001575c       0x8e c:/hightec/toolchains/tricore/v4.9.3.0-infineon-1.0/bin/../lib/gcc/tricore/4.9.4/../../../../tricore/lib/tc161\libm.a(lib_a-kf_sin.o)
                0x000000008001575c                __kernel_sinf
 .text.fabsf    0x00000000800157ea        0x6 c:/hightec/toolchains/tricore/v4.9.3.0-infineon-1.0/bin/../lib/gcc/tricore/4.9.4/../../../../tricore/lib/tc161\libm.a(lib_a-sf_fabs.o)
                0x00000000800157ea                fabsf
 .text.floorf   0x00000000800157f0       0x9e c:/hightec/toolchains/tricore/v4.9.3.0-infineon-1.0/bin/../lib/gcc/tricore/4.9.4/../../../../tricore/lib/tc161\libm.a(lib_a-sf_floor.o)
                0x00000000800157f0                floorf
 .text.scalbnf  0x000000008001588e       0xae c:/hightec/toolchains/tricore/v4.9.3.0-infineon-1.0/bin/../lib/gcc/tricore/4.9.4/../../../../tricore/lib/tc161\libm.a(lib_a-sf_scalbn.o)
                0x000000008001588e                scalbnf
 .text.copysignf
                0x000000008001593c        0x6 c:/hightec/toolchains/tricore/v4.9.3.0-infineon-1.0/bin/../lib/gcc/tricore/4.9.4/../../../../tricore/lib/tc161\libm.a(lib_a-sf_copysign.o)
                0x000000008001593c                copysignf
 .text.__eqdf2  0x0000000080015942       0x40 c:/hightec/toolchains/tricore/v4.9.3.0-infineon-1.0/bin/../lib/gcc/tricore/4.9.4/tc161\libgcc.a(_eq_df.o)
                0x0000000080015942                __eqdf2
 .text.__nedf2  0x0000000080015982       0x40 c:/hightec/toolchains/tricore/v4.9.3.0-infineon-1.0/bin/../lib/gcc/tricore/4.9.4/tc161\libgcc.a(_ne_df.o)
                0x0000000080015982                __nedf2
 .text.__umoddi3
                0x00000000800159c2       0x26 c:/hightec/toolchains/tricore/v4.9.3.0-infineon-1.0/bin/../lib/gcc/tricore/4.9.4/tc161\libgcc.a(umoddi3.o)
                0x00000000800159c2                __umoddi3
 *(.gnu.linkonce.t.*)
 *(.gnu.warning)
                0x00000000800159e8                . = ALIGN (0x8)

.sdata3         memory region -> PMU_PFLASH
                0x00000000800159e8        0x0
 *(.rodata_a8)
 *(.rodata_a8.*)
                0x0000000080008000                _SMALL_DATA3_ = SIZEOF (.sdata3)?(ADDR (.sdata3) + 0x8000):((ADDR (.sdata3) & 0xf0000000) + 0x8000)
                0x0000000080008000                __A8_MEM = _SMALL_DATA3_

.inttab_cpu1    memory region -> PMU_PFLASH
                0x0000000080016000        0x0
                0x0000000080016000                PROVIDE (__INTTAB1, .)
 *(.inttab_cpu1)
 *(.*.inttab_cpu1)
                0x0000000080016000                . = ALIGN (0x8)

.inttab_cpu2    memory region -> PMU_PFLASH
                0x0000000080016000        0x0
                0x0000000080016000                PROVIDE (__INTTAB2, .)
 *(.inttab_cpu2)
 *(.*.inttab_cpu2)
                0x0000000080016000                . = ALIGN (0x8)

.zdata          memory region -> DMI_DSPR0
                0x0000000070000000        0x0 load address 0x00000000800159e8
 *(.zdata)
 *(.zdata.*)
 *(.gnu.linkonce.z.*)

.zbss           memory region -> DMI_DSPR0
                0x0000000070000000        0x0 load address 0x00000000800159e8
 *(.zbss)
 *(.zbss.*)
 *(.bbss)
 *(.bbss.*)
 *(.gnu.linkonce.zb.*)

.sdata          memory region -> DMI_DSPR0
                0x0000000070000000        0x0 load address 0x00000000800159e8
 *(.sdata)
 *(.sdata.*)
                0x0000000070008000                _SMALL_DATA_ = SIZEOF (.sdata)?(ADDR (.sdata) + 0x8000):((ADDR (.sdata) & 0xf0000000) + 0x8000)
                0x0000000070008000                __A0_MEM = _SMALL_DATA_

.sbss           memory region -> DMI_DSPR0
                0x0000000070000000        0x0 load address 0x00000000800159e8
 *(.sbss)
 *(.sbss.*)

.data           memory region -> DMI_DSPR0
                0x0000000070000000     0x19b8 load address 0x00000000800159e8
 *(.data)
 .data          0x0000000070000000        0x8 obj/asw.c.o
 .data          0x0000000070000008        0x8 obj/bsw.c.o
                0x0000000070000008                g_vadcChannelIDs
 .data          0x0000000070000010      0x1c0 obj/ee_applcfg.c.o
                0x0000000070000010                osEE_ccb_var
 .data          0x00000000700001d0      0xf38 obj/illd/Libraries/iLLD/TC27D/Tricore/_PinMap/IfxPort_PinMap.c.o
                0x00000000700001d0                IfxPort_Pin_pinTable
                0x0000000070000c10                IfxPort_P40_9
                0x0000000070000c18                IfxPort_P40_8
                0x0000000070000c20                IfxPort_P40_7
                0x0000000070000c28                IfxPort_P40_6
                0x0000000070000c30                IfxPort_P40_5
                0x0000000070000c38                IfxPort_P40_4
                0x0000000070000c40                IfxPort_P40_3
                0x0000000070000c48                IfxPort_P40_2
                0x0000000070000c50                IfxPort_P40_1
                0x0000000070000c58                IfxPort_P40_0
                0x0000000070000c60                IfxPort_P34_5
                0x0000000070000c68                IfxPort_P34_4
                0x0000000070000c70                IfxPort_P34_3
                0x0000000070000c78                IfxPort_P34_2
                0x0000000070000c80                IfxPort_P34_1
                0x0000000070000c88                IfxPort_P33_9
                0x0000000070000c90                IfxPort_P33_8
                0x0000000070000c98                IfxPort_P33_7
                0x0000000070000ca0                IfxPort_P33_6
                0x0000000070000ca8                IfxPort_P33_5
                0x0000000070000cb0                IfxPort_P33_4
                0x0000000070000cb8                IfxPort_P33_3
                0x0000000070000cc0                IfxPort_P33_2
                0x0000000070000cc8                IfxPort_P33_15
                0x0000000070000cd0                IfxPort_P33_14
                0x0000000070000cd8                IfxPort_P33_13
                0x0000000070000ce0                IfxPort_P33_12
                0x0000000070000ce8                IfxPort_P33_11
                0x0000000070000cf0                IfxPort_P33_10
                0x0000000070000cf8                IfxPort_P33_1
                0x0000000070000d00                IfxPort_P33_0
                0x0000000070000d08                IfxPort_P32_7
                0x0000000070000d10                IfxPort_P32_6
                0x0000000070000d18                IfxPort_P32_5
                0x0000000070000d20                IfxPort_P32_4
                0x0000000070000d28                IfxPort_P32_3
                0x0000000070000d30                IfxPort_P32_2
                0x0000000070000d38                IfxPort_P32_0
                0x0000000070000d40                IfxPort_P23_7
                0x0000000070000d48                IfxPort_P23_6
                0x0000000070000d50                IfxPort_P23_5
                0x0000000070000d58                IfxPort_P23_4
                0x0000000070000d60                IfxPort_P23_3
                0x0000000070000d68                IfxPort_P23_2
                0x0000000070000d70                IfxPort_P23_1
                0x0000000070000d78                IfxPort_P23_0
                0x0000000070000d80                IfxPort_P22_9
                0x0000000070000d88                IfxPort_P22_8
                0x0000000070000d90                IfxPort_P22_7
                0x0000000070000d98                IfxPort_P22_6
                0x0000000070000da0                IfxPort_P22_5
                0x0000000070000da8                IfxPort_P22_4
                0x0000000070000db0                IfxPort_P22_3
                0x0000000070000db8                IfxPort_P22_2
                0x0000000070000dc0                IfxPort_P22_11
                0x0000000070000dc8                IfxPort_P22_10
                0x0000000070000dd0                IfxPort_P22_1
                0x0000000070000dd8                IfxPort_P22_0
                0x0000000070000de0                IfxPort_P21_7
                0x0000000070000de8                IfxPort_P21_6
                0x0000000070000df0                IfxPort_P21_5
                0x0000000070000df8                IfxPort_P21_4
                0x0000000070000e00                IfxPort_P21_3
                0x0000000070000e08                IfxPort_P21_2
                0x0000000070000e10                IfxPort_P21_1
                0x0000000070000e18                IfxPort_P21_0
                0x0000000070000e20                IfxPort_P20_9
                0x0000000070000e28                IfxPort_P20_8
                0x0000000070000e30                IfxPort_P20_7
                0x0000000070000e38                IfxPort_P20_6
                0x0000000070000e40                IfxPort_P20_3
                0x0000000070000e48                IfxPort_P20_14
                0x0000000070000e50                IfxPort_P20_13
                0x0000000070000e58                IfxPort_P20_12
                0x0000000070000e60                IfxPort_P20_11
                0x0000000070000e68                IfxPort_P20_10
                0x0000000070000e70                IfxPort_P20_1
                0x0000000070000e78                IfxPort_P20_0
                0x0000000070000e80                IfxPort_P15_8
                0x0000000070000e88                IfxPort_P15_7
                0x0000000070000e90                IfxPort_P15_6
                0x0000000070000e98                IfxPort_P15_5
                0x0000000070000ea0                IfxPort_P15_4
                0x0000000070000ea8                IfxPort_P15_3
                0x0000000070000eb0                IfxPort_P15_2
                0x0000000070000eb8                IfxPort_P15_1
                0x0000000070000ec0                IfxPort_P15_0
                0x0000000070000ec8                IfxPort_P14_9
                0x0000000070000ed0                IfxPort_P14_8
                0x0000000070000ed8                IfxPort_P14_7
                0x0000000070000ee0                IfxPort_P14_6
                0x0000000070000ee8                IfxPort_P14_5
                0x0000000070000ef0                IfxPort_P14_4
                0x0000000070000ef8                IfxPort_P14_3
                0x0000000070000f00                IfxPort_P14_2
                0x0000000070000f08                IfxPort_P14_10
                0x0000000070000f10                IfxPort_P14_1
                0x0000000070000f18                IfxPort_P14_0
                0x0000000070000f20                IfxPort_P13_3
                0x0000000070000f28                IfxPort_P13_2
                0x0000000070000f30                IfxPort_P13_1
                0x0000000070000f38                IfxPort_P13_0
                0x0000000070000f40                IfxPort_P12_1
                0x0000000070000f48                IfxPort_P12_0
                0x0000000070000f50                IfxPort_P11_9
                0x0000000070000f58                IfxPort_P11_8
                0x0000000070000f60                IfxPort_P11_7
                0x0000000070000f68                IfxPort_P11_6
                0x0000000070000f70                IfxPort_P11_5
                0x0000000070000f78                IfxPort_P11_4
                0x0000000070000f80                IfxPort_P11_3
                0x0000000070000f88                IfxPort_P11_2
                0x0000000070000f90                IfxPort_P11_15
                0x0000000070000f98                IfxPort_P11_14
                0x0000000070000fa0                IfxPort_P11_13
                0x0000000070000fa8                IfxPort_P11_12
                0x0000000070000fb0                IfxPort_P11_11
                0x0000000070000fb8                IfxPort_P11_10
                0x0000000070000fc0                IfxPort_P11_1
                0x0000000070000fc8                IfxPort_P11_0
                0x0000000070000fd0                IfxPort_P10_8
                0x0000000070000fd8                IfxPort_P10_7
                0x0000000070000fe0                IfxPort_P10_6
                0x0000000070000fe8                IfxPort_P10_5
                0x0000000070000ff0                IfxPort_P10_4
                0x0000000070000ff8                IfxPort_P10_3
                0x0000000070001000                IfxPort_P10_2
                0x0000000070001008                IfxPort_P10_1
                0x0000000070001010                IfxPort_P10_0
                0x0000000070001018                IfxPort_P02_9
                0x0000000070001020                IfxPort_P02_8
                0x0000000070001028                IfxPort_P02_7
                0x0000000070001030                IfxPort_P02_6
                0x0000000070001038                IfxPort_P02_5
                0x0000000070001040                IfxPort_P02_4
                0x0000000070001048                IfxPort_P02_3
                0x0000000070001050                IfxPort_P02_2
                0x0000000070001058                IfxPort_P02_11
                0x0000000070001060                IfxPort_P02_10
                0x0000000070001068                IfxPort_P02_1
                0x0000000070001070                IfxPort_P02_0
                0x0000000070001078                IfxPort_P01_7
                0x0000000070001080                IfxPort_P01_6
                0x0000000070001088                IfxPort_P01_5
                0x0000000070001090                IfxPort_P01_4
                0x0000000070001098                IfxPort_P01_3
                0x00000000700010a0                IfxPort_P00_9
                0x00000000700010a8                IfxPort_P00_8
                0x00000000700010b0                IfxPort_P00_7
                0x00000000700010b8                IfxPort_P00_6
                0x00000000700010c0                IfxPort_P00_5
                0x00000000700010c8                IfxPort_P00_4
                0x00000000700010d0                IfxPort_P00_3
                0x00000000700010d8                IfxPort_P00_2
                0x00000000700010e0                IfxPort_P00_12
                0x00000000700010e8                IfxPort_P00_11
                0x00000000700010f0                IfxPort_P00_10
                0x00000000700010f8                IfxPort_P00_1
                0x0000000070001100                IfxPort_P00_0
 .data          0x0000000070001108        0x8 obj/illd/src/IfxScuCcu.c.o
 .data          0x0000000070001110        0x8 obj/steering_Pid.c.o
                0x0000000070001110                min_dist_left
 .data          0x0000000070001118       0x28 obj/uart_Driver.c.o
                0x0000000070001118                g_RecievedParkingSystemPacket
 .data          0x0000000070001140       0x38 obj/ultrasonic_Driver.c.o
                0x0000000070001140                g_Ultrasonic_RR
                0x000000007000114a                g_Ultrasonic_FR
                0x0000000070001154                g_Ultrasonic_RL
                0x000000007000115e                g_Ultrasonic_FRONT
                0x0000000070001168                g_Ultrasonic_FL
 .data          0x0000000070001178      0x410 c:/hightec/toolchains/tricore/v4.9.3.0-infineon-1.0/bin/../lib/gcc/tricore/4.9.4/../../../../tricore/lib/tc161\libc.a(lib_a-mallocr.o)
                0x0000000070001178                __malloc_sbrk_base
                0x000000007000117c                __malloc_trim_threshold
                0x0000000070001180                __malloc_av_
 .data          0x0000000070001588      0x428 c:/hightec/toolchains/tricore/v4.9.3.0-infineon-1.0/bin/../lib/gcc/tricore/4.9.4/../../../../tricore/lib/tc161\libc.a(lib_a-impure.o)
                0x0000000070001588                _impure_ptr
 .data          0x00000000700019b0        0x8 c:/hightec/toolchains/tricore/v4.9.3.0-infineon-1.0/bin/../lib/gcc/tricore/4.9.4/../../../../tricore/lib/tc161\libos.a(libos_sbrk.o)
 *(.data.*)
 *(.gnu.linkonce.d.*)

.bss            memory region -> DMI_DSPR0
                0x00000000700019b8      0x778 load address 0x00000000800173a0
 *(.bss)
 .bss           0x00000000700019b8      0x2b0 obj/bsw.c.o
                0x00000000700019b8                g_vadcChannel
                0x00000000700019d8                g_vadcGroup
                0x00000000700019e4                g_vadc
                0x00000000700019e8                g_ERUconfig
                0x00000000700019f4                g_AsclinAsc
 .bss           0x0000000070001c68       0x60 obj/ee_applcfg.c.o
                0x0000000070001c68                osEE_kcb_var
 .bss           0x0000000070001cc8       0x38 obj/hall_Driver.c.o
                0x0000000070001cf8                g_RLHallCnt
                0x0000000070001cfa                g_RRHallCnt
                0x0000000070001cfc                g_FLHallCnt
                0x0000000070001cfe                g_FRHallCnt
 .bss           0x0000000070001d00       0xf0 obj/motor_driver.c.o
                0x0000000070001d00                motor_rr_tomDriver
                0x0000000070001d14                motor_rr_tomConfig
                0x0000000070001d3c                motor_rl_tomDriver
                0x0000000070001d50                motor_rl_tomConfig
                0x0000000070001d78                motor_fr_tomDriver
                0x0000000070001d8c                motor_fr_tomConfig
                0x0000000070001db4                motor_fl_tomDriver
                0x0000000070001dc8                motor_fl_tomConfig
 .bss           0x0000000070001df0       0x60 obj/shiparker_App.c.o
                0x0000000070001df0                RearUltra
                0x0000000070001df8                FrontUltra
                0x0000000070001e4a                g_isAppRunning
 .bss           0x0000000070001e50       0x18 obj/steering_Pid.c.o
 .bss           0x0000000070001e68      0x278 obj/uart_Driver.c.o
                0x0000000070001e68                g_AsclinStm
 .bss           0x00000000700020e0        0x8 C:\Users\USER\Desktop\AUTODR~1\TC275\erika\lib\libee.a(ee_tc_system.c.o)
 .bss           0x00000000700020e8       0x38 c:/hightec/toolchains/tricore/v4.9.3.0-infineon-1.0/bin/../lib/gcc/tricore/4.9.4/../../../../tricore/lib/tc161\libc.a(lib_a-mallocr.o)
                0x00000000700020e8                __malloc_current_mallinfo
                0x0000000070002110                __malloc_max_total_mem
                0x0000000070002114                __malloc_max_sbrked_mem
                0x0000000070002118                __malloc_top_pad
 .bss           0x0000000070002120        0x8 c:/hightec/toolchains/tricore/v4.9.3.0-infineon-1.0/bin/../lib/gcc/tricore/4.9.4/../../../../tricore/lib/tc161\libc.a(lib_a-reent.o)
                0x0000000070002120                errno
 .bss           0x0000000070002128        0x8 c:/hightec/toolchains/tricore/v4.9.3.0-infineon-1.0/bin/../lib/gcc/tricore/4.9.4/../../../../tricore/lib/tc161\libos.a(libos.o)
                0x0000000070002128                _my_errno
 *(.bss.*)
 *(.gnu.linkonce.b.*)

.heap           memory region -> DMI_DSPR0
                0x0000000070002130        0x0 load address 0x00000000800173a0
                0x0000000070002130                PROVIDE (__HEAP, .)
                0x0000000070002130                . = (. + __HEAP_SIZE)
                0x0000000070002130                PROVIDE (__HEAP_END, .)

.CPU2.zdata     memory region -> DMI_DSPR2
                0x0000000050000000        0x0 load address 0x00000000800173a0
 *(.zdata_cpu2)
 *(.zdata_cpu2.*)

.CPU2.zbss      memory region -> DMI_DSPR2
                0x0000000050000000        0x0 load address 0x00000000800173a0
 *(.zbss_cpu2)
 *(.zbss_cpu2.*)

.CPU2.data      memory region -> DMI_DSPR2
                0x0000000050000000        0x0 load address 0x00000000800173a0
 *(.data_cpu2)
 *(.data_cpu2.*)

.CPU2.bss       memory region -> DMI_DSPR2
                0x0000000050000000        0x0 load address 0x00000000800173a0
 *(.bss_cpu2)
 *(.bss_cpu2.*)

.CPU2.ustack    memory region -> DMI_DSPR2
                0x000000005001a600     0x1000 load address 0x00000000800173a0
                0x000000005001a600                __USTACK2_AREA_END = .
 *(.ustack_cpu2)
                0x000000005001a600                PROVIDE (__USTACK2_END, .)
                0x000000005001b600                . = (__USTACK2_AREA_END + __USTACK2_SIZE)
 *fill*         0x000000005001a600     0x1000 00
                0x000000005001b600                . = ALIGN (0x8)
                0x000000005001b600                PROVIDE (__USTACK2, .)

.CPU2.istack    memory region -> DMI_DSPR2
                0x000000005001b700      0x400 load address 0x00000000800173a0
                0x000000005001b700                PROVIDE (__ISTACK2_END, .)
                0x000000005001bb00                . = (. + __ISTACK2_SIZE)
 *fill*         0x000000005001b700      0x400 00
                0x000000005001bb00                PROVIDE (__ISTACK2, .)

.CPU2.csa       memory region -> DMI_DSPR2
                0x000000005001bc00     0x2000 load address 0x00000000800173c0
                0x000000005001bc00                PROVIDE (__CSA2, .)
                0x000000005001dc00                . = (. + __CSA2_SIZE)
 *fill*         0x000000005001bc00     0x2000 00
                0x000000005001dc00                PROVIDE (__CSA2_END, .)

.CPU2.psram_text memory region -> PMI_PSPR2
                0x0000000050100000        0x0 load address 0x00000000800173a0
 *(.psram_cpu2)
 *(.cpu2_psram)

.CPU1.zdata     memory region -> DMI_DSPR1
                0x0000000060000000        0x0 load address 0x00000000800173a0
 *(.zdata_cpu1)
 *(.zdata_cpu1.*)

.CPU1.zbss      memory region -> DMI_DSPR1
                0x0000000060000000        0x0 load address 0x00000000800173a0
 *(.zbss_cpu1)
 *(.zbss_cpu1.*)

.CPU1.data      memory region -> DMI_DSPR1
                0x0000000060000000        0x0 load address 0x00000000800173a0
 *(.data_cpu1)
 *(.data_cpu1.*)

.CPU1.bss       memory region -> DMI_DSPR1
                0x0000000060000000        0x0 load address 0x00000000800173a0
 *(.bss_cpu1)
 *(.bss_cpu1.*)

.CPU1.ustack    memory region -> DMI_DSPR1
                0x000000006001a600     0x1000 load address 0x00000000800173a0
                0x000000006001a600                __USTACK1_AREA_END = .
 *(.ustack_cpu1)
                0x000000006001a600                PROVIDE (__USTACK1_END, .)
                0x000000006001b600                . = (__USTACK1_AREA_END + __USTACK1_SIZE)
 *fill*         0x000000006001a600     0x1000 00
                0x000000006001b600                . = ALIGN (0x8)
                0x000000006001b600                PROVIDE (__USTACK1, .)

.CPU1.istack    memory region -> DMI_DSPR1
                0x000000006001b700      0x400 load address 0x00000000800173a0
                0x000000006001b700                PROVIDE (__ISTACK1_END, .)
                0x000000006001bb00                . = (. + __ISTACK1_SIZE)
 *fill*         0x000000006001b700      0x400 00
                0x000000006001bb00                PROVIDE (__ISTACK1, .)

.CPU1.csa       memory region -> DMI_DSPR1
                0x000000006001bc00     0x2000 load address 0x00000000800173c0
                0x000000006001bc00                PROVIDE (__CSA1, .)
                0x000000006001dc00                . = (. + __CSA1_SIZE)
 *fill*         0x000000006001bc00     0x2000 00
                0x000000006001dc00                PROVIDE (__CSA1_END, .)

.CPU1.psram_text memory region -> PMI_PSPR1
                0x0000000060100000        0x0 load address 0x00000000800173a0
 *(.psram_cpu1)
 *(.cpu1_psram)

.CPU0.zdata     memory region -> DMI_DSPR0
                0x0000000070002130        0x0 load address 0x00000000800173a0
 *(.zdata_cpu0)
 *(.zdata_cpu0.*)

.CPU0.zbss      memory region -> DMI_DSPR0
                0x0000000070002130        0x0 load address 0x00000000800173a0
 *(.zbss_cpu0)
 *(.zbss_cpu0.*)

.CPU0.data      memory region -> DMI_DSPR0
                0x0000000070002130        0x0 load address 0x00000000800173a0
 *(.data_cpu0)
 *(.data_cpu0.*)

.CPU0.bss       memory region -> DMI_DSPR0
                0x0000000070002130        0x0 load address 0x00000000800173a0
 *(.bss_cpu0)
 *(.bss_cpu0.*)

.CPU0.ustack    memory region -> DMI_DSPR0
                0x0000000070018600     0x1000 load address 0x00000000800173a0
                0x0000000070018600                __USTACK0_AREA_END = .
 *(.ustack_cpu0)
                0x0000000070018600                PROVIDE (__USTACK0_END, .)
                0x0000000070019600                . = (__USTACK0_AREA_END + __USTACK0_SIZE)
 *fill*         0x0000000070018600     0x1000 00
                0x0000000070019600                . = ALIGN (0x8)
                0x0000000070019600                PROVIDE (__USTACK0, .)

.CPU0.istack    memory region -> DMI_DSPR0
                0x0000000070019700      0x400 load address 0x00000000800173a0
                0x0000000070019700                PROVIDE (__ISTACK0_END, .)
                0x0000000070019b00                . = (. + __ISTACK0_SIZE)
 *fill*         0x0000000070019700      0x400 00
                0x0000000070019b00                PROVIDE (__ISTACK0, .)

.CPU0.csa       memory region -> DMI_DSPR0
                0x0000000070019c00     0x2000 load address 0x00000000800173c0
                0x0000000070019c00                PROVIDE (__CSA0, .)
                0x000000007001bc00                . = (. + __CSA0_SIZE)
 *fill*         0x0000000070019c00     0x2000 00
                0x000000007001bc00                PROVIDE (__CSA0_END, .)

.CPU0.psram_text memory region -> PMI_PSPR0
                0x0000000070100000        0x0 load address 0x00000000800173a0
 *(.psram_cpu0)
 *(.cpu0_psram)

.lmu_zdata      memory region -> LMU_SRAM_nc
                0x00000000b0000000        0x0 load address 0x00000000800173a0
 *(.zdata_lmu)
 *(.zdata_lmu.*)

.lmu_zbss       memory region -> LMU_SRAM_nc
                0x00000000b0000000        0x0 load address 0x00000000800173a0
 *(.zbss_lmu)
 *(.zbss_lmu.*)

.lmu_sdata      memory region -> LMU_SRAM_nc
                0x00000000b0000000        0x0 load address 0x00000000800173a0
 *(.sdata_lmu)
 *(.sdata_lmu.*)

.lmu_sbss       memory region -> LMU_SRAM_nc
                0x00000000b0000000        0x0 load address 0x00000000800173a0
 *(.sbss_lmu)
 *(.sbss_lmu.*)
                0x00000000b0008000                _SMALL_DATA4_ = SIZEOF (.lmu_sdata)?(ADDR (.lmu_sdata) + 0x8000):((ADDR (.lmu_sdata) & 0xf0000000) + 0x8000)
                0x00000000b0008000                __A9_MEM = _SMALL_DATA4_

.lmu_data       memory region -> LMU_SRAM_nc
                0x00000000b0000000        0x0 load address 0x00000000800173a0
 *(.lmu_data)
 *(.lmu_data.*)
 *(.data_lmu)
 *(.data_lmu.*)
 *(.lmudata)
 *(.lmudata.*)

.lmu_bss        memory region -> LMU_SRAM_nc
                0x00000000b0000000        0x0 load address 0x00000000800173a0
 *(.lmu_bss)
 *(.lmu_bss.*)
 *(.bss_lmu)
 *(.bss_lmu.*)
 *(.lmubss)
 *(.lmubss.*)
                [0x0000000000000000]                NULL = DEFINED (NULL)?NULL:0x0

.comment        memory region -> *default*
                0x0000000000000000       0x53
 *(.comment)
 .comment       0x0000000000000000       0x53 obj/asw.c.o
                                         0x54 (size before relaxing)
 .comment       0x0000000000000000       0x54 obj/bsw.c.o
 .comment       0x0000000000000000       0x54 obj/ee_applcfg.c.o
 .comment       0x0000000000000000       0x54 obj/hall_Driver.c.o
 .comment       0x0000000000000000       0x54 obj/illd/Libraries/iLLD/TC27D/Tricore/Gtm/Std/IfxGtm.c.o
 .comment       0x0000000000000000       0x54 obj/illd/Libraries/iLLD/TC27D/Tricore/Gtm/Std/IfxGtm_Cmu.c.o
 .comment       0x0000000000000000       0x54 obj/illd/Libraries/iLLD/TC27D/Tricore/Gtm/Std/IfxGtm_Dpll.c.o
 .comment       0x0000000000000000       0x54 obj/illd/Libraries/iLLD/TC27D/Tricore/Gtm/Std/IfxGtm_Tom.c.o
 .comment       0x0000000000000000       0x54 obj/illd/Libraries/iLLD/TC27D/Tricore/Gtm/Tom/Pwm/IfxGtm_Tom_Pwm.c.o
 .comment       0x0000000000000000       0x54 obj/illd/Libraries/iLLD/TC27D/Tricore/Vadc/std/IfxVadc.c.o
 .comment       0x0000000000000000       0x54 obj/illd/Libraries/iLLD/TC27D/Tricore/_Impl/IfxVadc_cfg.c.o
 .comment       0x0000000000000000       0x54 obj/illd/Libraries/iLLD/TC27D/Tricore/_PinMap/IfxGtm_PinMap.c.o
 .comment       0x0000000000000000       0x54 obj/illd/Libraries/iLLD/TC27D/Tricore/_PinMap/IfxPort_PinMap.c.o
 .comment       0x0000000000000000       0x54 obj/illd/src/Bsp.c.o
 .comment       0x0000000000000000       0x54 obj/illd/src/CompilerGnuc.c.o
 .comment       0x0000000000000000       0x54 obj/illd/src/IfxAsclin.c.o
 .comment       0x0000000000000000       0x54 obj/illd/src/IfxAsclin_Asc.c.o
 .comment       0x0000000000000000       0x54 obj/illd/src/IfxAsclin_PinMap.c.o
 .comment       0x0000000000000000       0x54 obj/illd/src/IfxAsclin_cfg.c.o
 .comment       0x0000000000000000       0x54 obj/illd/src/IfxCpu.c.o
 .comment       0x0000000000000000       0x54 obj/illd/src/IfxCpu_Irq.c.o
 .comment       0x0000000000000000       0x54 obj/illd/src/IfxCpu_cfg.c.o
 .comment       0x0000000000000000       0x54 obj/illd/src/IfxPort.c.o
 .comment       0x0000000000000000       0x54 obj/illd/src/IfxPort_cfg.c.o
 .comment       0x0000000000000000       0x54 obj/illd/src/IfxScuCcu.c.o
 .comment       0x0000000000000000       0x54 obj/illd/src/IfxScuEru.c.o
 .comment       0x0000000000000000       0x54 obj/illd/src/IfxScuWdt.c.o
 .comment       0x0000000000000000       0x54 obj/illd/src/IfxScu_PinMap.c.o
 .comment       0x0000000000000000       0x54 obj/illd/src/IfxScu_cfg.c.o
 .comment       0x0000000000000000       0x54 obj/illd/src/IfxSrc.c.o
 .comment       0x0000000000000000       0x54 obj/illd/src/IfxSrc_cfg.c.o
 .comment       0x0000000000000000       0x54 obj/illd/src/IfxStdIf_DPipe.c.o
 .comment       0x0000000000000000       0x54 obj/illd/src/IfxStm.c.o
 .comment       0x0000000000000000       0x54 obj/illd/src/IfxStm_cfg.c.o
 .comment       0x0000000000000000       0x54 obj/illd/src/IfxVadc_Adc.c.o
 .comment       0x0000000000000000       0x54 obj/illd/src/Ifx_CircularBuffer.c.o
 .comment       0x0000000000000000       0x54 obj/illd/src/Ifx_Fifo.c.o
 .comment       0x0000000000000000       0x54 obj/motor_driver.c.o
 .comment       0x0000000000000000       0x54 obj/shiparker_App.c.o
 .comment       0x0000000000000000       0x54 obj/steering_Pid.c.o
 .comment       0x0000000000000000       0x54 obj/uart_Driver.c.o
 .comment       0x0000000000000000       0x54 obj/ultrasonic_Driver.c.o
 .comment       0x0000000000000000       0x54 C:\Users\USER\Desktop\AUTODR~1\TC275\erika\lib\libee.a(ee_tc_cstart.c.o)
 .comment       0x0000000000000000       0x54 C:\Users\USER\Desktop\AUTODR~1\TC275\erika\lib\libee.a(ee_tc_system.c.o)
 .comment       0x0000000000000000       0x54 C:\Users\USER\Desktop\AUTODR~1\TC275\erika\lib\libee.a(ee_tc_trapvec.c.o)
 .comment       0x0000000000000000       0x54 C:\Users\USER\Desktop\AUTODR~1\TC275\erika\lib\libee.a(ee_tc_intvec.c.o)
 .comment       0x0000000000000000       0x54 C:\Users\USER\Desktop\AUTODR~1\TC275\erika\lib\libee.a(ee_oo_api_osek.c.o)
 .comment       0x0000000000000000       0x54 C:\Users\USER\Desktop\AUTODR~1\TC275\erika\lib\libee.a(ee_oo_sched_entry_points.c.o)
 .comment       0x0000000000000000       0x54 C:\Users\USER\Desktop\AUTODR~1\TC275\erika\lib\libee.a(ee_oo_scheduler.c.o)
 .comment       0x0000000000000000       0x54 C:\Users\USER\Desktop\AUTODR~1\TC275\erika\lib\libee.a(ee_oo_kernel.c.o)
 .comment       0x0000000000000000       0x54 C:\Users\USER\Desktop\AUTODR~1\TC275\erika\lib\libee.a(ee_oo_sched_partitioned.c.o)
 .comment       0x0000000000000000       0x54 C:\Users\USER\Desktop\AUTODR~1\TC275\erika\lib\libee.a(ee_oo_counter.c.o)
 .comment       0x0000000000000000       0x54 C:\Users\USER\Desktop\AUTODR~1\TC275\erika\lib\libee.a(ee_oo_alarm.c.o)
 .comment       0x0000000000000000       0x54 C:\Users\USER\Desktop\AUTODR~1\TC275\erika\lib\libee.a(ee_std_change_context.c.o)
 .comment       0x0000000000000000       0x54 C:\Users\USER\Desktop\AUTODR~1\TC275\erika\lib\libee.a(ee_tc_hal.c.o)
 .comment       0x0000000000000000       0x54 C:\Users\USER\Desktop\AUTODR~1\TC275\erika\lib\libee.a(ee_tc_ctx.c.o)
 .comment       0x0000000000000000       0x54 c:/hightec/toolchains/tricore/v4.9.3.0-infineon-1.0/bin/../lib/gcc/tricore/4.9.4/tc161\libgcc.a(_fixunsdfsi.o)
 .comment       0x0000000000000000       0x54 c:/hightec/toolchains/tricore/v4.9.3.0-infineon-1.0/bin/../lib/gcc/tricore/4.9.4/tc161\libgcc.a(_floatundidf.o)
 .comment       0x0000000000000000       0x54 c:/hightec/toolchains/tricore/v4.9.3.0-infineon-1.0/bin/../lib/gcc/tricore/4.9.4/tc161\libgcc.a(_sf_to_df.o)
 .comment       0x0000000000000000       0x54 c:/hightec/toolchains/tricore/v4.9.3.0-infineon-1.0/bin/../lib/gcc/tricore/4.9.4/tc161\libgcc.a(_addsub_df.o)
 .comment       0x0000000000000000       0x54 c:/hightec/toolchains/tricore/v4.9.3.0-infineon-1.0/bin/../lib/gcc/tricore/4.9.4/tc161\libgcc.a(_mul_df.o)
 .comment       0x0000000000000000       0x54 c:/hightec/toolchains/tricore/v4.9.3.0-infineon-1.0/bin/../lib/gcc/tricore/4.9.4/tc161\libgcc.a(_div_df.o)
 .comment       0x0000000000000000       0x54 c:/hightec/toolchains/tricore/v4.9.3.0-infineon-1.0/bin/../lib/gcc/tricore/4.9.4/tc161\libgcc.a(_gt_df.o)
 .comment       0x0000000000000000       0x54 c:/hightec/toolchains/tricore/v4.9.3.0-infineon-1.0/bin/../lib/gcc/tricore/4.9.4/tc161\libgcc.a(_ge_df.o)
 .comment       0x0000000000000000       0x54 c:/hightec/toolchains/tricore/v4.9.3.0-infineon-1.0/bin/../lib/gcc/tricore/4.9.4/tc161\libgcc.a(_lt_df.o)
 .comment       0x0000000000000000       0x54 c:/hightec/toolchains/tricore/v4.9.3.0-infineon-1.0/bin/../lib/gcc/tricore/4.9.4/tc161\libgcc.a(_si_to_df.o)
 .comment       0x0000000000000000       0x54 c:/hightec/toolchains/tricore/v4.9.3.0-infineon-1.0/bin/../lib/gcc/tricore/4.9.4/tc161\libgcc.a(_df_to_si.o)
 .comment       0x0000000000000000       0x54 c:/hightec/toolchains/tricore/v4.9.3.0-infineon-1.0/bin/../lib/gcc/tricore/4.9.4/tc161\libgcc.a(_make_df.o)
 .comment       0x0000000000000000       0x54 c:/hightec/toolchains/tricore/v4.9.3.0-infineon-1.0/bin/../lib/gcc/tricore/4.9.4/tc161\libgcc.a(_df_to_sf.o)
 .comment       0x0000000000000000       0x54 c:/hightec/toolchains/tricore/v4.9.3.0-infineon-1.0/bin/../lib/gcc/tricore/4.9.4/tc161\libgcc.a(_thenan_df.o)
 .comment       0x0000000000000000       0x54 c:/hightec/toolchains/tricore/v4.9.3.0-infineon-1.0/bin/../lib/gcc/tricore/4.9.4/tc161\libgcc.a(_usi_to_df.o)
 .comment       0x0000000000000000       0x54 c:/hightec/toolchains/tricore/v4.9.3.0-infineon-1.0/bin/../lib/gcc/tricore/4.9.4/tc161\libgcc.a(udivdi3.o)
 .comment       0x0000000000000000       0x54 c:/hightec/toolchains/tricore/v4.9.3.0-infineon-1.0/bin/../lib/gcc/tricore/4.9.4/tc161\libgcc.a(_unpack_sf.o)
 .comment       0x0000000000000000       0x54 c:/hightec/toolchains/tricore/v4.9.3.0-infineon-1.0/bin/../lib/gcc/tricore/4.9.4/tc161\libgcc.a(_make_sf.o)
 .comment       0x0000000000000000       0x54 c:/hightec/toolchains/tricore/v4.9.3.0-infineon-1.0/bin/../lib/gcc/tricore/4.9.4/tc161\libgcc.a(_pack_df.o)
 .comment       0x0000000000000000       0x54 c:/hightec/toolchains/tricore/v4.9.3.0-infineon-1.0/bin/../lib/gcc/tricore/4.9.4/tc161\libgcc.a(_unpack_df.o)
 .comment       0x0000000000000000       0x54 c:/hightec/toolchains/tricore/v4.9.3.0-infineon-1.0/bin/../lib/gcc/tricore/4.9.4/tc161\libgcc.a(_fpcmp_parts_df.o)
 .comment       0x0000000000000000       0x54 c:/hightec/toolchains/tricore/v4.9.3.0-infineon-1.0/bin/../lib/gcc/tricore/4.9.4/tc161\libgcc.a(udiv6432.o)
 .comment       0x0000000000000000       0x54 c:/hightec/toolchains/tricore/v4.9.3.0-infineon-1.0/bin/../lib/gcc/tricore/4.9.4/tc161\libgcc.a(_pack_sf.o)
 .comment       0x0000000000000000       0x54 c:/hightec/toolchains/tricore/v4.9.3.0-infineon-1.0/bin/../lib/gcc/tricore/4.9.4/../../../../tricore/lib/tc161\libc.a(lib_a-malloc.o)
 .comment       0x0000000000000000       0x54 c:/hightec/toolchains/tricore/v4.9.3.0-infineon-1.0/bin/../lib/gcc/tricore/4.9.4/../../../../tricore/lib/tc161\libc.a(lib_a-mallocr.o)
 .comment       0x0000000000000000       0x54 c:/hightec/toolchains/tricore/v4.9.3.0-infineon-1.0/bin/../lib/gcc/tricore/4.9.4/../../../../tricore/lib/tc161\libc.a(lib_a-mlock.o)
 .comment       0x0000000000000000       0x54 c:/hightec/toolchains/tricore/v4.9.3.0-infineon-1.0/bin/../lib/gcc/tricore/4.9.4/../../../../tricore/lib/tc161\libc.a(lib_a-sbrkr.o)
 .comment       0x0000000000000000       0x54 c:/hightec/toolchains/tricore/v4.9.3.0-infineon-1.0/bin/../lib/gcc/tricore/4.9.4/../../../../tricore/lib/tc161\libc.a(lib_a-strlen.o)
 .comment       0x0000000000000000       0x54 c:/hightec/toolchains/tricore/v4.9.3.0-infineon-1.0/bin/../lib/gcc/tricore/4.9.4/../../../../tricore/lib/tc161\libc.a(lib_a-vsnprintf.o)
 .comment       0x0000000000000000       0x54 c:/hightec/toolchains/tricore/v4.9.3.0-infineon-1.0/bin/../lib/gcc/tricore/4.9.4/../../../../tricore/lib/tc161\libc.a(lib_a-vsprintf.o)
 .comment       0x0000000000000000       0x54 c:/hightec/toolchains/tricore/v4.9.3.0-infineon-1.0/bin/../lib/gcc/tricore/4.9.4/../../../../tricore/lib/tc161\libc.a(lib_a-freer.o)
 .comment       0x0000000000000000       0x54 c:/hightec/toolchains/tricore/v4.9.3.0-infineon-1.0/bin/../lib/gcc/tricore/4.9.4/../../../../tricore/lib/tc161\libc.a(lib_a-impure.o)
 .comment       0x0000000000000000       0x54 c:/hightec/toolchains/tricore/v4.9.3.0-infineon-1.0/bin/../lib/gcc/tricore/4.9.4/../../../../tricore/lib/tc161\libc.a(lib_a-reent.o)
 .comment       0x0000000000000000       0x54 c:/hightec/toolchains/tricore/v4.9.3.0-infineon-1.0/bin/../lib/gcc/tricore/4.9.4/../../../../tricore/lib/tc161\libc.a(lib_a-svfprintf.o)
 .comment       0x0000000000000000       0x54 c:/hightec/toolchains/tricore/v4.9.3.0-infineon-1.0/bin/../lib/gcc/tricore/4.9.4/../../../../tricore/lib/tc161\libc.a(lib_a-dtoa.o)
 .comment       0x0000000000000000       0x54 c:/hightec/toolchains/tricore/v4.9.3.0-infineon-1.0/bin/../lib/gcc/tricore/4.9.4/../../../../tricore/lib/tc161\libc.a(lib_a-locale.o)
 .comment       0x0000000000000000       0x54 c:/hightec/toolchains/tricore/v4.9.3.0-infineon-1.0/bin/../lib/gcc/tricore/4.9.4/../../../../tricore/lib/tc161\libc.a(lib_a-memchr.o)
 .comment       0x0000000000000000       0x54 c:/hightec/toolchains/tricore/v4.9.3.0-infineon-1.0/bin/../lib/gcc/tricore/4.9.4/../../../../tricore/lib/tc161\libc.a(lib_a-memcpy.o)
 .comment       0x0000000000000000       0x54 c:/hightec/toolchains/tricore/v4.9.3.0-infineon-1.0/bin/../lib/gcc/tricore/4.9.4/../../../../tricore/lib/tc161\libc.a(lib_a-mprec.o)
 .comment       0x0000000000000000       0x54 c:/hightec/toolchains/tricore/v4.9.3.0-infineon-1.0/bin/../lib/gcc/tricore/4.9.4/../../../../tricore/lib/tc161\libc.a(lib_a-s_fpclassify.o)
 .comment       0x0000000000000000       0x54 c:/hightec/toolchains/tricore/v4.9.3.0-infineon-1.0/bin/../lib/gcc/tricore/4.9.4/../../../../tricore/lib/tc161\libc.a(lib_a-strcmp.o)
 .comment       0x0000000000000000       0x54 c:/hightec/toolchains/tricore/v4.9.3.0-infineon-1.0/bin/../lib/gcc/tricore/4.9.4/../../../../tricore/lib/tc161\libc.a(lib_a-svfiprintf.o)
 .comment       0x0000000000000000       0x54 c:/hightec/toolchains/tricore/v4.9.3.0-infineon-1.0/bin/../lib/gcc/tricore/4.9.4/../../../../tricore/lib/tc161\libc.a(lib_a-callocr.o)
 .comment       0x0000000000000000       0x54 c:/hightec/toolchains/tricore/v4.9.3.0-infineon-1.0/bin/../lib/gcc/tricore/4.9.4/../../../../tricore/lib/tc161\libc.a(lib_a-memmove.o)
 .comment       0x0000000000000000       0x54 c:/hightec/toolchains/tricore/v4.9.3.0-infineon-1.0/bin/../lib/gcc/tricore/4.9.4/../../../../tricore/lib/tc161\libc.a(lib_a-memset.o)
 .comment       0x0000000000000000       0x54 c:/hightec/toolchains/tricore/v4.9.3.0-infineon-1.0/bin/../lib/gcc/tricore/4.9.4/../../../../tricore/lib/tc161\libc.a(lib_a-reallocr.o)
 .comment       0x0000000000000000       0x54 c:/hightec/toolchains/tricore/v4.9.3.0-infineon-1.0/bin/../lib/gcc/tricore/4.9.4/../../../../tricore/lib/tc161\libos.a(libos_exit.o)
 .comment       0x0000000000000000       0x54 c:/hightec/toolchains/tricore/v4.9.3.0-infineon-1.0/bin/../lib/gcc/tricore/4.9.4/../../../../tricore/lib/tc161\libos.a(libos_sbrk.o)
 .comment       0x0000000000000000       0x54 c:/hightec/toolchains/tricore/v4.9.3.0-infineon-1.0/bin/../lib/gcc/tricore/4.9.4/../../../../tricore/lib/tc161\libos.a(libos.o)
 .comment       0x0000000000000000       0x54 c:/hightec/toolchains/tricore/v4.9.3.0-infineon-1.0/bin/../lib/gcc/tricore/4.9.4/../../../../tricore/lib/tc161\libos.a(libos_abort.o)
 .comment       0x0000000000000000       0x54 c:/hightec/toolchains/tricore/v4.9.3.0-infineon-1.0/bin/../lib/gcc/tricore/4.9.4/../../../../tricore/lib/tc161\libm.a(lib_a-s_atan.o)
 .comment       0x0000000000000000       0x54 c:/hightec/toolchains/tricore/v4.9.3.0-infineon-1.0/bin/../lib/gcc/tricore/4.9.4/../../../../tricore/lib/tc161\libm.a(lib_a-s_fabs.o)
 .comment       0x0000000000000000       0x54 c:/hightec/toolchains/tricore/v4.9.3.0-infineon-1.0/bin/../lib/gcc/tricore/4.9.4/../../../../tricore/lib/tc161\libm.a(lib_a-wf_sincos.o)
 .comment       0x0000000000000000       0x54 c:/hightec/toolchains/tricore/v4.9.3.0-infineon-1.0/bin/../lib/gcc/tricore/4.9.4/../../../../tricore/lib/tc161\libm.a(lib_a-sf_cos.o)
 .comment       0x0000000000000000       0x54 c:/hightec/toolchains/tricore/v4.9.3.0-infineon-1.0/bin/../lib/gcc/tricore/4.9.4/../../../../tricore/lib/tc161\libm.a(lib_a-sf_sin.o)
 .comment       0x0000000000000000       0x54 c:/hightec/toolchains/tricore/v4.9.3.0-infineon-1.0/bin/../lib/gcc/tricore/4.9.4/../../../../tricore/lib/tc161\libm.a(lib_a-ef_rem_pio2.o)
 .comment       0x0000000000000000       0x54 c:/hightec/toolchains/tricore/v4.9.3.0-infineon-1.0/bin/../lib/gcc/tricore/4.9.4/../../../../tricore/lib/tc161\libm.a(lib_a-kf_cos.o)
 .comment       0x0000000000000000       0x54 c:/hightec/toolchains/tricore/v4.9.3.0-infineon-1.0/bin/../lib/gcc/tricore/4.9.4/../../../../tricore/lib/tc161\libm.a(lib_a-kf_rem_pio2.o)
 .comment       0x0000000000000000       0x54 c:/hightec/toolchains/tricore/v4.9.3.0-infineon-1.0/bin/../lib/gcc/tricore/4.9.4/../../../../tricore/lib/tc161\libm.a(lib_a-kf_sin.o)
 .comment       0x0000000000000000       0x54 c:/hightec/toolchains/tricore/v4.9.3.0-infineon-1.0/bin/../lib/gcc/tricore/4.9.4/../../../../tricore/lib/tc161\libm.a(lib_a-sf_fabs.o)
 .comment       0x0000000000000000       0x54 c:/hightec/toolchains/tricore/v4.9.3.0-infineon-1.0/bin/../lib/gcc/tricore/4.9.4/../../../../tricore/lib/tc161\libm.a(lib_a-sf_floor.o)
 .comment       0x0000000000000000       0x54 c:/hightec/toolchains/tricore/v4.9.3.0-infineon-1.0/bin/../lib/gcc/tricore/4.9.4/../../../../tricore/lib/tc161\libm.a(lib_a-sf_scalbn.o)
 .comment       0x0000000000000000       0x54 c:/hightec/toolchains/tricore/v4.9.3.0-infineon-1.0/bin/../lib/gcc/tricore/4.9.4/../../../../tricore/lib/tc161\libm.a(lib_a-sf_copysign.o)
 .comment       0x0000000000000000       0x54 c:/hightec/toolchains/tricore/v4.9.3.0-infineon-1.0/bin/../lib/gcc/tricore/4.9.4/tc161\libgcc.a(_eq_df.o)
 .comment       0x0000000000000000       0x54 c:/hightec/toolchains/tricore/v4.9.3.0-infineon-1.0/bin/../lib/gcc/tricore/4.9.4/tc161\libgcc.a(_ne_df.o)
 .comment       0x0000000000000000       0x54 c:/hightec/toolchains/tricore/v4.9.3.0-infineon-1.0/bin/../lib/gcc/tricore/4.9.4/tc161\libgcc.a(umoddi3.o)

.debug
 *(.debug)

.line
 *(.line)

.debug_srcinfo
 *(.debug_srcinfo)

.debug_sfnames
 *(.debug_sfnames)

.debug_aranges  memory region -> *default*
                0x0000000000000000     0x1040
 *(.debug_aranges)
 .debug_aranges
                0x0000000000000000       0x20 obj/asw.c.o
 .debug_aranges
                0x0000000000000020       0x20 obj/bsw.c.o
 .debug_aranges
                0x0000000000000040       0x18 obj/ee_applcfg.c.o
 .debug_aranges
                0x0000000000000058       0x20 obj/hall_Driver.c.o
 .debug_aranges
                0x0000000000000078       0x20 obj/illd/Libraries/iLLD/TC27D/Tricore/Gtm/Std/IfxGtm.c.o
 .debug_aranges
                0x0000000000000098       0x20 obj/illd/Libraries/iLLD/TC27D/Tricore/Gtm/Std/IfxGtm_Cmu.c.o
 .debug_aranges
                0x00000000000000b8       0x20 obj/illd/Libraries/iLLD/TC27D/Tricore/Gtm/Std/IfxGtm_Dpll.c.o
 .debug_aranges
                0x00000000000000d8       0x20 obj/illd/Libraries/iLLD/TC27D/Tricore/Gtm/Std/IfxGtm_Tom.c.o
 .debug_aranges
                0x00000000000000f8       0x20 obj/illd/Libraries/iLLD/TC27D/Tricore/Gtm/Tom/Pwm/IfxGtm_Tom_Pwm.c.o
 .debug_aranges
                0x0000000000000118       0x20 obj/illd/Libraries/iLLD/TC27D/Tricore/Vadc/std/IfxVadc.c.o
 .debug_aranges
                0x0000000000000138       0x18 obj/illd/Libraries/iLLD/TC27D/Tricore/_Impl/IfxVadc_cfg.c.o
 .debug_aranges
                0x0000000000000150       0x20 obj/illd/Libraries/iLLD/TC27D/Tricore/_PinMap/IfxGtm_PinMap.c.o
 .debug_aranges
                0x0000000000000170       0x18 obj/illd/Libraries/iLLD/TC27D/Tricore/_PinMap/IfxPort_PinMap.c.o
 .debug_aranges
                0x0000000000000188       0x20 obj/illd/src/Bsp.c.o
 .debug_aranges
                0x00000000000001a8       0x20 obj/illd/src/CompilerGnuc.c.o
 .debug_aranges
                0x00000000000001c8       0x20 obj/illd/src/IfxAsclin.c.o
 .debug_aranges
                0x00000000000001e8       0x20 obj/illd/src/IfxAsclin_Asc.c.o
 .debug_aranges
                0x0000000000000208       0x18 obj/illd/src/IfxAsclin_PinMap.c.o
 .debug_aranges
                0x0000000000000220       0x18 obj/illd/src/IfxAsclin_cfg.c.o
 .debug_aranges
                0x0000000000000238       0x20 obj/illd/src/IfxCpu.c.o
 .debug_aranges
                0x0000000000000258       0x20 obj/illd/src/IfxCpu_Irq.c.o
 .debug_aranges
                0x0000000000000278       0x18 obj/illd/src/IfxCpu_cfg.c.o
 .debug_aranges
                0x0000000000000290       0x20 obj/illd/src/IfxPort.c.o
 .debug_aranges
                0x00000000000002b0       0x18 obj/illd/src/IfxPort_cfg.c.o
 .debug_aranges
                0x00000000000002c8       0x20 obj/illd/src/IfxScuCcu.c.o
 .debug_aranges
                0x00000000000002e8       0x20 obj/illd/src/IfxScuEru.c.o
 .debug_aranges
                0x0000000000000308       0x20 obj/illd/src/IfxScuWdt.c.o
 .debug_aranges
                0x0000000000000328       0x18 obj/illd/src/IfxScu_PinMap.c.o
 .debug_aranges
                0x0000000000000340       0x18 obj/illd/src/IfxSrc.c.o
 .debug_aranges
                0x0000000000000358       0x20 obj/illd/src/IfxStdIf_DPipe.c.o
 .debug_aranges
                0x0000000000000378       0x20 obj/illd/src/IfxStm.c.o
 .debug_aranges
                0x0000000000000398       0x18 obj/illd/src/IfxStm_cfg.c.o
 .debug_aranges
                0x00000000000003b0       0x20 obj/illd/src/IfxVadc_Adc.c.o
 .debug_aranges
                0x00000000000003d0       0x20 obj/illd/src/Ifx_CircularBuffer.c.o
 .debug_aranges
                0x00000000000003f0       0x20 obj/illd/src/Ifx_Fifo.c.o
 .debug_aranges
                0x0000000000000410       0x20 obj/motor_driver.c.o
 .debug_aranges
                0x0000000000000430       0x20 obj/shiparker_App.c.o
 .debug_aranges
                0x0000000000000450       0x20 obj/steering_Pid.c.o
 .debug_aranges
                0x0000000000000470       0x20 obj/uart_Driver.c.o
 .debug_aranges
                0x0000000000000490       0x20 obj/ultrasonic_Driver.c.o
 .debug_aranges
                0x00000000000004b0       0x28 C:\Users\USER\Desktop\AUTODR~1\TC275\erika\lib\libee.a(ee_tc_cstart.c.o)
 .debug_aranges
                0x00000000000004d8       0x20 C:\Users\USER\Desktop\AUTODR~1\TC275\erika\lib\libee.a(ee_tc_system.c.o)
 .debug_aranges
                0x00000000000004f8       0x18 C:\Users\USER\Desktop\AUTODR~1\TC275\erika\lib\libee.a(ee_tc_trapvec.c.o)
 .debug_aranges
                0x0000000000000510       0x20 C:\Users\USER\Desktop\AUTODR~1\TC275\erika\lib\libee.a(ee_tc_intvec.c.o)
 .debug_aranges
                0x0000000000000530       0x20 C:\Users\USER\Desktop\AUTODR~1\TC275\erika\lib\libee.a(ee_oo_api_osek.c.o)
 .debug_aranges
                0x0000000000000550       0x20 C:\Users\USER\Desktop\AUTODR~1\TC275\erika\lib\libee.a(ee_oo_sched_entry_points.c.o)
 .debug_aranges
                0x0000000000000570       0x20 C:\Users\USER\Desktop\AUTODR~1\TC275\erika\lib\libee.a(ee_oo_scheduler.c.o)
 .debug_aranges
                0x0000000000000590       0x20 C:\Users\USER\Desktop\AUTODR~1\TC275\erika\lib\libee.a(ee_oo_kernel.c.o)
 .debug_aranges
                0x00000000000005b0       0x20 C:\Users\USER\Desktop\AUTODR~1\TC275\erika\lib\libee.a(ee_oo_sched_partitioned.c.o)
 .debug_aranges
                0x00000000000005d0       0x20 C:\Users\USER\Desktop\AUTODR~1\TC275\erika\lib\libee.a(ee_oo_counter.c.o)
 .debug_aranges
                0x00000000000005f0       0x20 C:\Users\USER\Desktop\AUTODR~1\TC275\erika\lib\libee.a(ee_oo_alarm.c.o)
 .debug_aranges
                0x0000000000000610       0x20 C:\Users\USER\Desktop\AUTODR~1\TC275\erika\lib\libee.a(ee_std_change_context.c.o)
 .debug_aranges
                0x0000000000000630       0x20 C:\Users\USER\Desktop\AUTODR~1\TC275\erika\lib\libee.a(ee_tc_hal.c.o)
 .debug_aranges
                0x0000000000000650       0x20 C:\Users\USER\Desktop\AUTODR~1\TC275\erika\lib\libee.a(ee_tc_ctx.c.o)
 .debug_aranges
                0x0000000000000670       0x20 c:/hightec/toolchains/tricore/v4.9.3.0-infineon-1.0/bin/../lib/gcc/tricore/4.9.4/tc161\libgcc.a(_lshrdi3.o)
 .debug_aranges
                0x0000000000000690       0x20 c:/hightec/toolchains/tricore/v4.9.3.0-infineon-1.0/bin/../lib/gcc/tricore/4.9.4/tc161\libgcc.a(_fixunsdfsi.o)
 .debug_aranges
                0x00000000000006b0       0x20 c:/hightec/toolchains/tricore/v4.9.3.0-infineon-1.0/bin/../lib/gcc/tricore/4.9.4/tc161\libgcc.a(_floatundidf.o)
 .debug_aranges
                0x00000000000006d0       0x20 c:/hightec/toolchains/tricore/v4.9.3.0-infineon-1.0/bin/../lib/gcc/tricore/4.9.4/tc161\libgcc.a(_sf_to_df.o)
 .debug_aranges
                0x00000000000006f0       0x30 c:/hightec/toolchains/tricore/v4.9.3.0-infineon-1.0/bin/../lib/gcc/tricore/4.9.4/tc161\libgcc.a(_addsub_df.o)
 .debug_aranges
                0x0000000000000720       0x20 c:/hightec/toolchains/tricore/v4.9.3.0-infineon-1.0/bin/../lib/gcc/tricore/4.9.4/tc161\libgcc.a(_mul_df.o)
 .debug_aranges
                0x0000000000000740       0x20 c:/hightec/toolchains/tricore/v4.9.3.0-infineon-1.0/bin/../lib/gcc/tricore/4.9.4/tc161\libgcc.a(_div_df.o)
 .debug_aranges
                0x0000000000000760       0x20 c:/hightec/toolchains/tricore/v4.9.3.0-infineon-1.0/bin/../lib/gcc/tricore/4.9.4/tc161\libgcc.a(_gt_df.o)
 .debug_aranges
                0x0000000000000780       0x20 c:/hightec/toolchains/tricore/v4.9.3.0-infineon-1.0/bin/../lib/gcc/tricore/4.9.4/tc161\libgcc.a(_ge_df.o)
 .debug_aranges
                0x00000000000007a0       0x20 c:/hightec/toolchains/tricore/v4.9.3.0-infineon-1.0/bin/../lib/gcc/tricore/4.9.4/tc161\libgcc.a(_lt_df.o)
 .debug_aranges
                0x00000000000007c0       0x20 c:/hightec/toolchains/tricore/v4.9.3.0-infineon-1.0/bin/../lib/gcc/tricore/4.9.4/tc161\libgcc.a(_si_to_df.o)
 .debug_aranges
                0x00000000000007e0       0x20 c:/hightec/toolchains/tricore/v4.9.3.0-infineon-1.0/bin/../lib/gcc/tricore/4.9.4/tc161\libgcc.a(_df_to_si.o)
 .debug_aranges
                0x0000000000000800       0x20 c:/hightec/toolchains/tricore/v4.9.3.0-infineon-1.0/bin/../lib/gcc/tricore/4.9.4/tc161\libgcc.a(_make_df.o)
 .debug_aranges
                0x0000000000000820       0x20 c:/hightec/toolchains/tricore/v4.9.3.0-infineon-1.0/bin/../lib/gcc/tricore/4.9.4/tc161\libgcc.a(_df_to_sf.o)
 .debug_aranges
                0x0000000000000840       0x18 c:/hightec/toolchains/tricore/v4.9.3.0-infineon-1.0/bin/../lib/gcc/tricore/4.9.4/tc161\libgcc.a(_thenan_df.o)
 .debug_aranges
                0x0000000000000858       0x20 c:/hightec/toolchains/tricore/v4.9.3.0-infineon-1.0/bin/../lib/gcc/tricore/4.9.4/tc161\libgcc.a(_usi_to_df.o)
 .debug_aranges
                0x0000000000000878       0x20 c:/hightec/toolchains/tricore/v4.9.3.0-infineon-1.0/bin/../lib/gcc/tricore/4.9.4/tc161\libgcc.a(udivdi3.o)
 .debug_aranges
                0x0000000000000898       0x20 c:/hightec/toolchains/tricore/v4.9.3.0-infineon-1.0/bin/../lib/gcc/tricore/4.9.4/tc161\libgcc.a(_ashldi3.o)
 .debug_aranges
                0x00000000000008b8       0x20 c:/hightec/toolchains/tricore/v4.9.3.0-infineon-1.0/bin/../lib/gcc/tricore/4.9.4/tc161\libgcc.a(_unpack_sf.o)
 .debug_aranges
                0x00000000000008d8       0x20 c:/hightec/toolchains/tricore/v4.9.3.0-infineon-1.0/bin/../lib/gcc/tricore/4.9.4/tc161\libgcc.a(_make_sf.o)
 .debug_aranges
                0x00000000000008f8       0x20 c:/hightec/toolchains/tricore/v4.9.3.0-infineon-1.0/bin/../lib/gcc/tricore/4.9.4/tc161\libgcc.a(_pack_df.o)
 .debug_aranges
                0x0000000000000918       0x20 c:/hightec/toolchains/tricore/v4.9.3.0-infineon-1.0/bin/../lib/gcc/tricore/4.9.4/tc161\libgcc.a(_unpack_df.o)
 .debug_aranges
                0x0000000000000938       0x20 c:/hightec/toolchains/tricore/v4.9.3.0-infineon-1.0/bin/../lib/gcc/tricore/4.9.4/tc161\libgcc.a(_fpcmp_parts_df.o)
 .debug_aranges
                0x0000000000000958       0x20 c:/hightec/toolchains/tricore/v4.9.3.0-infineon-1.0/bin/../lib/gcc/tricore/4.9.4/tc161\libgcc.a(udiv6432.o)
 .debug_aranges
                0x0000000000000978       0x20 c:/hightec/toolchains/tricore/v4.9.3.0-infineon-1.0/bin/../lib/gcc/tricore/4.9.4/tc161\libgcc.a(_pack_sf.o)
 .debug_aranges
                0x0000000000000998       0x28 c:/hightec/toolchains/tricore/v4.9.3.0-infineon-1.0/bin/../lib/gcc/tricore/4.9.4/../../../../tricore/lib/tc161\libc.a(lib_a-malloc.o)
 .debug_aranges
                0x00000000000009c0       0x20 c:/hightec/toolchains/tricore/v4.9.3.0-infineon-1.0/bin/../lib/gcc/tricore/4.9.4/../../../../tricore/lib/tc161\libc.a(lib_a-mallocr.o)
 .debug_aranges
                0x00000000000009e0       0x28 c:/hightec/toolchains/tricore/v4.9.3.0-infineon-1.0/bin/../lib/gcc/tricore/4.9.4/../../../../tricore/lib/tc161\libc.a(lib_a-mlock.o)
 .debug_aranges
                0x0000000000000a08       0x20 c:/hightec/toolchains/tricore/v4.9.3.0-infineon-1.0/bin/../lib/gcc/tricore/4.9.4/../../../../tricore/lib/tc161\libc.a(lib_a-sbrkr.o)
 .debug_aranges
                0x0000000000000a28       0x20 c:/hightec/toolchains/tricore/v4.9.3.0-infineon-1.0/bin/../lib/gcc/tricore/4.9.4/../../../../tricore/lib/tc161\libc.a(lib_a-strlen.o)
 .debug_aranges
                0x0000000000000a48       0x28 c:/hightec/toolchains/tricore/v4.9.3.0-infineon-1.0/bin/../lib/gcc/tricore/4.9.4/../../../../tricore/lib/tc161\libc.a(lib_a-vsnprintf.o)
 .debug_aranges
                0x0000000000000a70       0x28 c:/hightec/toolchains/tricore/v4.9.3.0-infineon-1.0/bin/../lib/gcc/tricore/4.9.4/../../../../tricore/lib/tc161\libc.a(lib_a-vsprintf.o)
 .debug_aranges
                0x0000000000000a98       0x28 c:/hightec/toolchains/tricore/v4.9.3.0-infineon-1.0/bin/../lib/gcc/tricore/4.9.4/../../../../tricore/lib/tc161\libc.a(lib_a-freer.o)
 .debug_aranges
                0x0000000000000ac0       0x18 c:/hightec/toolchains/tricore/v4.9.3.0-infineon-1.0/bin/../lib/gcc/tricore/4.9.4/../../../../tricore/lib/tc161\libc.a(lib_a-impure.o)
 .debug_aranges
                0x0000000000000ad8       0x30 c:/hightec/toolchains/tricore/v4.9.3.0-infineon-1.0/bin/../lib/gcc/tricore/4.9.4/../../../../tricore/lib/tc161\libc.a(lib_a-reent.o)
 .debug_aranges
                0x0000000000000b08       0x20 c:/hightec/toolchains/tricore/v4.9.3.0-infineon-1.0/bin/../lib/gcc/tricore/4.9.4/../../../../tricore/lib/tc161\libc.a(lib_a-svfprintf.o)
 .debug_aranges
                0x0000000000000b28       0x28 c:/hightec/toolchains/tricore/v4.9.3.0-infineon-1.0/bin/../lib/gcc/tricore/4.9.4/../../../../tricore/lib/tc161\libc.a(lib_a-dtoa.o)
 .debug_aranges
                0x0000000000000b50       0x50 c:/hightec/toolchains/tricore/v4.9.3.0-infineon-1.0/bin/../lib/gcc/tricore/4.9.4/../../../../tricore/lib/tc161\libc.a(lib_a-locale.o)
 .debug_aranges
                0x0000000000000ba0       0x20 c:/hightec/toolchains/tricore/v4.9.3.0-infineon-1.0/bin/../lib/gcc/tricore/4.9.4/../../../../tricore/lib/tc161\libc.a(lib_a-memchr.o)
 .debug_aranges
                0x0000000000000bc0       0x20 c:/hightec/toolchains/tricore/v4.9.3.0-infineon-1.0/bin/../lib/gcc/tricore/4.9.4/../../../../tricore/lib/tc161\libc.a(lib_a-memcpy.o)
 .debug_aranges
                0x0000000000000be0       0xb0 c:/hightec/toolchains/tricore/v4.9.3.0-infineon-1.0/bin/../lib/gcc/tricore/4.9.4/../../../../tricore/lib/tc161\libc.a(lib_a-mprec.o)
 .debug_aranges
                0x0000000000000c90       0x20 c:/hightec/toolchains/tricore/v4.9.3.0-infineon-1.0/bin/../lib/gcc/tricore/4.9.4/../../../../tricore/lib/tc161\libc.a(lib_a-s_fpclassify.o)
 .debug_aranges
                0x0000000000000cb0       0x20 c:/hightec/toolchains/tricore/v4.9.3.0-infineon-1.0/bin/../lib/gcc/tricore/4.9.4/../../../../tricore/lib/tc161\libc.a(lib_a-strcmp.o)
 .debug_aranges
                0x0000000000000cd0       0x28 c:/hightec/toolchains/tricore/v4.9.3.0-infineon-1.0/bin/../lib/gcc/tricore/4.9.4/../../../../tricore/lib/tc161\libc.a(lib_a-svfiprintf.o)
 .debug_aranges
                0x0000000000000cf8       0x20 c:/hightec/toolchains/tricore/v4.9.3.0-infineon-1.0/bin/../lib/gcc/tricore/4.9.4/../../../../tricore/lib/tc161\libc.a(lib_a-callocr.o)
 .debug_aranges
                0x0000000000000d18       0x20 c:/hightec/toolchains/tricore/v4.9.3.0-infineon-1.0/bin/../lib/gcc/tricore/4.9.4/../../../../tricore/lib/tc161\libc.a(lib_a-memmove.o)
 .debug_aranges
                0x0000000000000d38       0x20 c:/hightec/toolchains/tricore/v4.9.3.0-infineon-1.0/bin/../lib/gcc/tricore/4.9.4/../../../../tricore/lib/tc161\libc.a(lib_a-memset.o)
 .debug_aranges
                0x0000000000000d58       0x20 c:/hightec/toolchains/tricore/v4.9.3.0-infineon-1.0/bin/../lib/gcc/tricore/4.9.4/../../../../tricore/lib/tc161\libc.a(lib_a-reallocr.o)
 .debug_aranges
                0x0000000000000d78       0x20 c:/hightec/toolchains/tricore/v4.9.3.0-infineon-1.0/bin/../lib/gcc/tricore/4.9.4/../../../../tricore/lib/tc161\libos.a(libos_exit.o)
 .debug_aranges
                0x0000000000000d98       0x20 c:/hightec/toolchains/tricore/v4.9.3.0-infineon-1.0/bin/../lib/gcc/tricore/4.9.4/../../../../tricore/lib/tc161\libos.a(libos_sbrk.o)
 .debug_aranges
                0x0000000000000db8       0x68 c:/hightec/toolchains/tricore/v4.9.3.0-infineon-1.0/bin/../lib/gcc/tricore/4.9.4/../../../../tricore/lib/tc161\libos.a(libos.o)
 .debug_aranges
                0x0000000000000e20       0x20 c:/hightec/toolchains/tricore/v4.9.3.0-infineon-1.0/bin/../lib/gcc/tricore/4.9.4/../../../../tricore/lib/tc161\libos.a(libos_abort.o)
 .debug_aranges
                0x0000000000000e40       0x20 c:/hightec/toolchains/tricore/v4.9.3.0-infineon-1.0/bin/../lib/gcc/tricore/4.9.4/../../../../tricore/lib/tc161\libm.a(lib_a-s_atan.o)
 .debug_aranges
                0x0000000000000e60       0x20 c:/hightec/toolchains/tricore/v4.9.3.0-infineon-1.0/bin/../lib/gcc/tricore/4.9.4/../../../../tricore/lib/tc161\libm.a(lib_a-s_fabs.o)
 .debug_aranges
                0x0000000000000e80       0x20 c:/hightec/toolchains/tricore/v4.9.3.0-infineon-1.0/bin/../lib/gcc/tricore/4.9.4/../../../../tricore/lib/tc161\libm.a(lib_a-wf_sincos.o)
 .debug_aranges
                0x0000000000000ea0       0x20 c:/hightec/toolchains/tricore/v4.9.3.0-infineon-1.0/bin/../lib/gcc/tricore/4.9.4/../../../../tricore/lib/tc161\libm.a(lib_a-sf_cos.o)
 .debug_aranges
                0x0000000000000ec0       0x20 c:/hightec/toolchains/tricore/v4.9.3.0-infineon-1.0/bin/../lib/gcc/tricore/4.9.4/../../../../tricore/lib/tc161\libm.a(lib_a-sf_sin.o)
 .debug_aranges
                0x0000000000000ee0       0x20 c:/hightec/toolchains/tricore/v4.9.3.0-infineon-1.0/bin/../lib/gcc/tricore/4.9.4/../../../../tricore/lib/tc161\libm.a(lib_a-ef_rem_pio2.o)
 .debug_aranges
                0x0000000000000f00       0x20 c:/hightec/toolchains/tricore/v4.9.3.0-infineon-1.0/bin/../lib/gcc/tricore/4.9.4/../../../../tricore/lib/tc161\libm.a(lib_a-kf_cos.o)
 .debug_aranges
                0x0000000000000f20       0x20 c:/hightec/toolchains/tricore/v4.9.3.0-infineon-1.0/bin/../lib/gcc/tricore/4.9.4/../../../../tricore/lib/tc161\libm.a(lib_a-kf_rem_pio2.o)
 .debug_aranges
                0x0000000000000f40       0x20 c:/hightec/toolchains/tricore/v4.9.3.0-infineon-1.0/bin/../lib/gcc/tricore/4.9.4/../../../../tricore/lib/tc161\libm.a(lib_a-kf_sin.o)
 .debug_aranges
                0x0000000000000f60       0x20 c:/hightec/toolchains/tricore/v4.9.3.0-infineon-1.0/bin/../lib/gcc/tricore/4.9.4/../../../../tricore/lib/tc161\libm.a(lib_a-sf_fabs.o)
 .debug_aranges
                0x0000000000000f80       0x20 c:/hightec/toolchains/tricore/v4.9.3.0-infineon-1.0/bin/../lib/gcc/tricore/4.9.4/../../../../tricore/lib/tc161\libm.a(lib_a-sf_floor.o)
 .debug_aranges
                0x0000000000000fa0       0x20 c:/hightec/toolchains/tricore/v4.9.3.0-infineon-1.0/bin/../lib/gcc/tricore/4.9.4/../../../../tricore/lib/tc161\libm.a(lib_a-sf_scalbn.o)
 .debug_aranges
                0x0000000000000fc0       0x20 c:/hightec/toolchains/tricore/v4.9.3.0-infineon-1.0/bin/../lib/gcc/tricore/4.9.4/../../../../tricore/lib/tc161\libm.a(lib_a-sf_copysign.o)
 .debug_aranges
                0x0000000000000fe0       0x20 c:/hightec/toolchains/tricore/v4.9.3.0-infineon-1.0/bin/../lib/gcc/tricore/4.9.4/tc161\libgcc.a(_eq_df.o)
 .debug_aranges
                0x0000000000001000       0x20 c:/hightec/toolchains/tricore/v4.9.3.0-infineon-1.0/bin/../lib/gcc/tricore/4.9.4/tc161\libgcc.a(_ne_df.o)
 .debug_aranges
                0x0000000000001020       0x20 c:/hightec/toolchains/tricore/v4.9.3.0-infineon-1.0/bin/../lib/gcc/tricore/4.9.4/tc161\libgcc.a(umoddi3.o)

.debug_pubnames
 *(.debug_pubnames)

.debug_info     memory region -> *default*
                0x0000000000000000   0x1ba433
 *(.debug_info)
 .debug_info    0x0000000000000000      0x3db obj/asw.c.o
 .debug_info    0x00000000000003db    0x182b6 obj/bsw.c.o
 .debug_info    0x0000000000018691     0x15e5 obj/ee_applcfg.c.o
 .debug_info    0x0000000000019c76     0xbe38 obj/hall_Driver.c.o
 .debug_info    0x0000000000025aae    0x1b249 obj/illd/Libraries/iLLD/TC27D/Tricore/Gtm/Std/IfxGtm.c.o
 .debug_info    0x0000000000040cf7    0x1baa3 obj/illd/Libraries/iLLD/TC27D/Tricore/Gtm/Std/IfxGtm_Cmu.c.o
 .debug_info    0x000000000005c79a    0x1af39 obj/illd/Libraries/iLLD/TC27D/Tricore/Gtm/Std/IfxGtm_Dpll.c.o
 .debug_info    0x00000000000776d3    0x1ee78 obj/illd/Libraries/iLLD/TC27D/Tricore/Gtm/Std/IfxGtm_Tom.c.o
 .debug_info    0x000000000009654b    0x1e5cb obj/illd/Libraries/iLLD/TC27D/Tricore/Gtm/Tom/Pwm/IfxGtm_Tom_Pwm.c.o
 .debug_info    0x00000000000b4b16     0x7bdf obj/illd/Libraries/iLLD/TC27D/Tricore/Vadc/std/IfxVadc.c.o
 .debug_info    0x00000000000bc6f5      0x405 obj/illd/Libraries/iLLD/TC27D/Tricore/_Impl/IfxVadc_cfg.c.o
 .debug_info    0x00000000000bcafa    0x2675c obj/illd/Libraries/iLLD/TC27D/Tricore/_PinMap/IfxGtm_PinMap.c.o
 .debug_info    0x00000000000e3256     0x374b obj/illd/Libraries/iLLD/TC27D/Tricore/_PinMap/IfxPort_PinMap.c.o
 .debug_info    0x00000000000e69a1     0x1a15 obj/illd/src/Bsp.c.o
 .debug_info    0x00000000000e83b6      0x369 obj/illd/src/CompilerGnuc.c.o
 .debug_info    0x00000000000e871f     0x5a08 obj/illd/src/IfxAsclin.c.o
 .debug_info    0x00000000000ee127     0xaf89 obj/illd/src/IfxAsclin_Asc.c.o
 .debug_info    0x00000000000f90b0     0x5982 obj/illd/src/IfxAsclin_PinMap.c.o
 .debug_info    0x00000000000fea32     0x2273 obj/illd/src/IfxAsclin_cfg.c.o
 .debug_info    0x0000000000100ca5     0xaf89 obj/illd/src/IfxCpu.c.o
 .debug_info    0x000000000010bc2e      0x502 obj/illd/src/IfxCpu_Irq.c.o
 .debug_info    0x000000000010c130     0x3dac obj/illd/src/IfxCpu_cfg.c.o
 .debug_info    0x000000000010fedc     0x3a3f obj/illd/src/IfxPort.c.o
 .debug_info    0x000000000011391b     0x277d obj/illd/src/IfxPort_cfg.c.o
 .debug_info    0x0000000000116098     0x87e4 obj/illd/src/IfxScuCcu.c.o
 .debug_info    0x000000000011e87c     0x7578 obj/illd/src/IfxScuEru.c.o
 .debug_info    0x0000000000125df4     0x772c obj/illd/src/IfxScuWdt.c.o
 .debug_info    0x000000000012d520     0x9490 obj/illd/src/IfxScu_PinMap.c.o
 .debug_info    0x00000000001369b0      0x221 obj/illd/src/IfxSrc.c.o
 .debug_info    0x0000000000136bd1      0x9d9 obj/illd/src/IfxStdIf_DPipe.c.o
 .debug_info    0x00000000001375aa     0x72b6 obj/illd/src/IfxStm.c.o
 .debug_info    0x000000000013e860     0x1483 obj/illd/src/IfxStm_cfg.c.o
 .debug_info    0x000000000013fce3     0xdbdb obj/illd/src/IfxVadc_Adc.c.o
 .debug_info    0x000000000014d8be      0x59f obj/illd/src/Ifx_CircularBuffer.c.o
 .debug_info    0x000000000014de5d     0x2f84 obj/illd/src/Ifx_Fifo.c.o
 .debug_info    0x0000000000150de1    0x1f8d8 obj/motor_driver.c.o
 .debug_info    0x00000000001706b9     0x3c3d obj/shiparker_App.c.o
 .debug_info    0x00000000001742f6     0x1883 obj/steering_Pid.c.o
 .debug_info    0x0000000000175b79     0x6ef7 obj/uart_Driver.c.o
 .debug_info    0x000000000017ca70     0x436f obj/ultrasonic_Driver.c.o
 .debug_info    0x0000000000180ddf     0x2da2 C:\Users\USER\Desktop\AUTODR~1\TC275\erika\lib\libee.a(ee_tc_cstart.c.o)
 .debug_info    0x0000000000183b81     0x2167 C:\Users\USER\Desktop\AUTODR~1\TC275\erika\lib\libee.a(ee_tc_system.c.o)
 .debug_info    0x0000000000185ce8     0x11f8 C:\Users\USER\Desktop\AUTODR~1\TC275\erika\lib\libee.a(ee_tc_trapvec.c.o)
 .debug_info    0x0000000000186ee0     0x12b2 C:\Users\USER\Desktop\AUTODR~1\TC275\erika\lib\libee.a(ee_tc_intvec.c.o)
 .debug_info    0x0000000000188192     0x4d9b C:\Users\USER\Desktop\AUTODR~1\TC275\erika\lib\libee.a(ee_oo_api_osek.c.o)
 .debug_info    0x000000000018cf2d     0x1d3a C:\Users\USER\Desktop\AUTODR~1\TC275\erika\lib\libee.a(ee_oo_sched_entry_points.c.o)
 .debug_info    0x000000000018ec67     0x171f C:\Users\USER\Desktop\AUTODR~1\TC275\erika\lib\libee.a(ee_oo_scheduler.c.o)
 .debug_info    0x0000000000190386     0x140d C:\Users\USER\Desktop\AUTODR~1\TC275\erika\lib\libee.a(ee_oo_kernel.c.o)
 .debug_info    0x0000000000191793     0x1c4c C:\Users\USER\Desktop\AUTODR~1\TC275\erika\lib\libee.a(ee_oo_sched_partitioned.c.o)
 .debug_info    0x00000000001933df     0x1a4d C:\Users\USER\Desktop\AUTODR~1\TC275\erika\lib\libee.a(ee_oo_counter.c.o)
 .debug_info    0x0000000000194e2c     0x1787 C:\Users\USER\Desktop\AUTODR~1\TC275\erika\lib\libee.a(ee_oo_alarm.c.o)
 .debug_info    0x00000000001965b3     0x14da C:\Users\USER\Desktop\AUTODR~1\TC275\erika\lib\libee.a(ee_std_change_context.c.o)
 .debug_info    0x0000000000197a8d     0x14c8 C:\Users\USER\Desktop\AUTODR~1\TC275\erika\lib\libee.a(ee_tc_hal.c.o)
 .debug_info    0x0000000000198f55     0x1f0f C:\Users\USER\Desktop\AUTODR~1\TC275\erika\lib\libee.a(ee_tc_ctx.c.o)
 .debug_info    0x000000000019ae64       0xb9 c:/hightec/toolchains/tricore/v4.9.3.0-infineon-1.0/bin/../lib/gcc/tricore/4.9.4/tc161\libgcc.a(_lshrdi3.o)
 .debug_info    0x000000000019af1d      0x33b c:/hightec/toolchains/tricore/v4.9.3.0-infineon-1.0/bin/../lib/gcc/tricore/4.9.4/tc161\libgcc.a(_fixunsdfsi.o)
 .debug_info    0x000000000019b258      0x34b c:/hightec/toolchains/tricore/v4.9.3.0-infineon-1.0/bin/../lib/gcc/tricore/4.9.4/tc161\libgcc.a(_floatundidf.o)
 .debug_info    0x000000000019b5a3      0x572 c:/hightec/toolchains/tricore/v4.9.3.0-infineon-1.0/bin/../lib/gcc/tricore/4.9.4/tc161\libgcc.a(_sf_to_df.o)
 .debug_info    0x000000000019bb15      0x855 c:/hightec/toolchains/tricore/v4.9.3.0-infineon-1.0/bin/../lib/gcc/tricore/4.9.4/tc161\libgcc.a(_addsub_df.o)
 .debug_info    0x000000000019c36a      0x7b7 c:/hightec/toolchains/tricore/v4.9.3.0-infineon-1.0/bin/../lib/gcc/tricore/4.9.4/tc161\libgcc.a(_mul_df.o)
 .debug_info    0x000000000019cb21      0x6d6 c:/hightec/toolchains/tricore/v4.9.3.0-infineon-1.0/bin/../lib/gcc/tricore/4.9.4/tc161\libgcc.a(_div_df.o)
 .debug_info    0x000000000019d1f7      0x5dd c:/hightec/toolchains/tricore/v4.9.3.0-infineon-1.0/bin/../lib/gcc/tricore/4.9.4/tc161\libgcc.a(_gt_df.o)
 .debug_info    0x000000000019d7d4      0x5dd c:/hightec/toolchains/tricore/v4.9.3.0-infineon-1.0/bin/../lib/gcc/tricore/4.9.4/tc161\libgcc.a(_ge_df.o)
 .debug_info    0x000000000019ddb1      0x5dd c:/hightec/toolchains/tricore/v4.9.3.0-infineon-1.0/bin/../lib/gcc/tricore/4.9.4/tc161\libgcc.a(_lt_df.o)
 .debug_info    0x000000000019e38e      0x50c c:/hightec/toolchains/tricore/v4.9.3.0-infineon-1.0/bin/../lib/gcc/tricore/4.9.4/tc161\libgcc.a(_si_to_df.o)
 .debug_info    0x000000000019e89a      0x5a2 c:/hightec/toolchains/tricore/v4.9.3.0-infineon-1.0/bin/../lib/gcc/tricore/4.9.4/tc161\libgcc.a(_df_to_si.o)
 .debug_info    0x000000000019ee3c      0x4a9 c:/hightec/toolchains/tricore/v4.9.3.0-infineon-1.0/bin/../lib/gcc/tricore/4.9.4/tc161\libgcc.a(_make_df.o)
 .debug_info    0x000000000019f2e5      0x583 c:/hightec/toolchains/tricore/v4.9.3.0-infineon-1.0/bin/../lib/gcc/tricore/4.9.4/tc161\libgcc.a(_df_to_sf.o)
 .debug_info    0x000000000019f868      0x3db c:/hightec/toolchains/tricore/v4.9.3.0-infineon-1.0/bin/../lib/gcc/tricore/4.9.4/tc161\libgcc.a(_thenan_df.o)
 .debug_info    0x000000000019fc43      0x4f0 c:/hightec/toolchains/tricore/v4.9.3.0-infineon-1.0/bin/../lib/gcc/tricore/4.9.4/tc161\libgcc.a(_usi_to_df.o)
 .debug_info    0x00000000001a0133      0x3b5 c:/hightec/toolchains/tricore/v4.9.3.0-infineon-1.0/bin/../lib/gcc/tricore/4.9.4/tc161\libgcc.a(udivdi3.o)
 .debug_info    0x00000000001a04e8       0xb9 c:/hightec/toolchains/tricore/v4.9.3.0-infineon-1.0/bin/../lib/gcc/tricore/4.9.4/tc161\libgcc.a(_ashldi3.o)
 .debug_info    0x00000000001a05a1      0x4fe c:/hightec/toolchains/tricore/v4.9.3.0-infineon-1.0/bin/../lib/gcc/tricore/4.9.4/tc161\libgcc.a(_unpack_sf.o)
 .debug_info    0x00000000001a0a9f      0x4aa c:/hightec/toolchains/tricore/v4.9.3.0-infineon-1.0/bin/../lib/gcc/tricore/4.9.4/tc161\libgcc.a(_make_sf.o)
 .debug_info    0x00000000001a0f49      0x58d c:/hightec/toolchains/tricore/v4.9.3.0-infineon-1.0/bin/../lib/gcc/tricore/4.9.4/tc161\libgcc.a(_pack_df.o)
 .debug_info    0x00000000001a14d6      0x508 c:/hightec/toolchains/tricore/v4.9.3.0-infineon-1.0/bin/../lib/gcc/tricore/4.9.4/tc161\libgcc.a(_unpack_df.o)
 .debug_info    0x00000000001a19de      0x4a2 c:/hightec/toolchains/tricore/v4.9.3.0-infineon-1.0/bin/../lib/gcc/tricore/4.9.4/tc161\libgcc.a(_fpcmp_parts_df.o)
 .debug_info    0x00000000001a1e80      0x3f7 c:/hightec/toolchains/tricore/v4.9.3.0-infineon-1.0/bin/../lib/gcc/tricore/4.9.4/tc161\libgcc.a(udiv6432.o)
 .debug_info    0x00000000001a2277      0x585 c:/hightec/toolchains/tricore/v4.9.3.0-infineon-1.0/bin/../lib/gcc/tricore/4.9.4/tc161\libgcc.a(_pack_sf.o)
 .debug_info    0x00000000001a27fc      0xd37 c:/hightec/toolchains/tricore/v4.9.3.0-infineon-1.0/bin/../lib/gcc/tricore/4.9.4/../../../../tricore/lib/tc161\libc.a(lib_a-malloc.o)
 .debug_info    0x00000000001a3533     0x128c c:/hightec/toolchains/tricore/v4.9.3.0-infineon-1.0/bin/../lib/gcc/tricore/4.9.4/../../../../tricore/lib/tc161\libc.a(lib_a-mallocr.o)
 .debug_info    0x00000000001a47bf      0xcd3 c:/hightec/toolchains/tricore/v4.9.3.0-infineon-1.0/bin/../lib/gcc/tricore/4.9.4/../../../../tricore/lib/tc161\libc.a(lib_a-mlock.o)
 .debug_info    0x00000000001a5492      0xd00 c:/hightec/toolchains/tricore/v4.9.3.0-infineon-1.0/bin/../lib/gcc/tricore/4.9.4/../../../../tricore/lib/tc161\libc.a(lib_a-sbrkr.o)
 .debug_info    0x00000000001a6192      0x2bc c:/hightec/toolchains/tricore/v4.9.3.0-infineon-1.0/bin/../lib/gcc/tricore/4.9.4/../../../../tricore/lib/tc161\libc.a(lib_a-strlen.o)
 .debug_info    0x00000000001a644e      0xe05 c:/hightec/toolchains/tricore/v4.9.3.0-infineon-1.0/bin/../lib/gcc/tricore/4.9.4/../../../../tricore/lib/tc161\libc.a(lib_a-vsnprintf.o)
 .debug_info    0x00000000001a7253      0xde1 c:/hightec/toolchains/tricore/v4.9.3.0-infineon-1.0/bin/../lib/gcc/tricore/4.9.4/../../../../tricore/lib/tc161\libc.a(lib_a-vsprintf.o)
 .debug_info    0x00000000001a8034     0x10f9 c:/hightec/toolchains/tricore/v4.9.3.0-infineon-1.0/bin/../lib/gcc/tricore/4.9.4/../../../../tricore/lib/tc161\libc.a(lib_a-freer.o)
 .debug_info    0x00000000001a912d      0xca4 c:/hightec/toolchains/tricore/v4.9.3.0-infineon-1.0/bin/../lib/gcc/tricore/4.9.4/../../../../tricore/lib/tc161\libc.a(lib_a-impure.o)
 .debug_info    0x00000000001a9dd1      0xe7a c:/hightec/toolchains/tricore/v4.9.3.0-infineon-1.0/bin/../lib/gcc/tricore/4.9.4/../../../../tricore/lib/tc161\libc.a(lib_a-reent.o)
 .debug_info    0x00000000001aac4b     0x1b92 c:/hightec/toolchains/tricore/v4.9.3.0-infineon-1.0/bin/../lib/gcc/tricore/4.9.4/../../../../tricore/lib/tc161\libc.a(lib_a-svfprintf.o)
 .debug_info    0x00000000001ac7dd     0x17b1 c:/hightec/toolchains/tricore/v4.9.3.0-infineon-1.0/bin/../lib/gcc/tricore/4.9.4/../../../../tricore/lib/tc161\libc.a(lib_a-dtoa.o)
 .debug_info    0x00000000001adf8e     0x11df c:/hightec/toolchains/tricore/v4.9.3.0-infineon-1.0/bin/../lib/gcc/tricore/4.9.4/../../../../tricore/lib/tc161\libc.a(lib_a-locale.o)
 .debug_info    0x00000000001af16d      0x2f4 c:/hightec/toolchains/tricore/v4.9.3.0-infineon-1.0/bin/../lib/gcc/tricore/4.9.4/../../../../tricore/lib/tc161\libc.a(lib_a-memchr.o)
 .debug_info    0x00000000001af461      0x300 c:/hightec/toolchains/tricore/v4.9.3.0-infineon-1.0/bin/../lib/gcc/tricore/4.9.4/../../../../tricore/lib/tc161\libc.a(lib_a-memcpy.o)
 .debug_info    0x00000000001af761     0x1ad4 c:/hightec/toolchains/tricore/v4.9.3.0-infineon-1.0/bin/../lib/gcc/tricore/4.9.4/../../../../tricore/lib/tc161\libc.a(lib_a-mprec.o)
 .debug_info    0x00000000001b1235      0x2f0 c:/hightec/toolchains/tricore/v4.9.3.0-infineon-1.0/bin/../lib/gcc/tricore/4.9.4/../../../../tricore/lib/tc161\libc.a(lib_a-s_fpclassify.o)
 .debug_info    0x00000000001b1525      0x2aa c:/hightec/toolchains/tricore/v4.9.3.0-infineon-1.0/bin/../lib/gcc/tricore/4.9.4/../../../../tricore/lib/tc161\libc.a(lib_a-strcmp.o)
 .debug_info    0x00000000001b17cf     0x14c5 c:/hightec/toolchains/tricore/v4.9.3.0-infineon-1.0/bin/../lib/gcc/tricore/4.9.4/../../../../tricore/lib/tc161\libc.a(lib_a-svfiprintf.o)
 .debug_info    0x00000000001b2c94      0xe22 c:/hightec/toolchains/tricore/v4.9.3.0-infineon-1.0/bin/../lib/gcc/tricore/4.9.4/../../../../tricore/lib/tc161\libc.a(lib_a-callocr.o)
 .debug_info    0x00000000001b3ab6      0x309 c:/hightec/toolchains/tricore/v4.9.3.0-infineon-1.0/bin/../lib/gcc/tricore/4.9.4/../../../../tricore/lib/tc161\libc.a(lib_a-memmove.o)
 .debug_info    0x00000000001b3dbf      0x2cb c:/hightec/toolchains/tricore/v4.9.3.0-infineon-1.0/bin/../lib/gcc/tricore/4.9.4/../../../../tricore/lib/tc161\libc.a(lib_a-memset.o)
 .debug_info    0x00000000001b408a     0x118f c:/hightec/toolchains/tricore/v4.9.3.0-infineon-1.0/bin/../lib/gcc/tricore/4.9.4/../../../../tricore/lib/tc161\libc.a(lib_a-reallocr.o)
 .debug_info    0x00000000001b5219      0x2a0 c:/hightec/toolchains/tricore/v4.9.3.0-infineon-1.0/bin/../lib/gcc/tricore/4.9.4/../../../../tricore/lib/tc161\libos.a(libos_exit.o)
 .debug_info    0x00000000001b54b9      0x33b c:/hightec/toolchains/tricore/v4.9.3.0-infineon-1.0/bin/../lib/gcc/tricore/4.9.4/../../../../tricore/lib/tc161\libos.a(libos_sbrk.o)
 .debug_info    0x00000000001b57f4      0x6f0 c:/hightec/toolchains/tricore/v4.9.3.0-infineon-1.0/bin/../lib/gcc/tricore/4.9.4/../../../../tricore/lib/tc161\libos.a(libos.o)
 .debug_info    0x00000000001b5ee4      0x26c c:/hightec/toolchains/tricore/v4.9.3.0-infineon-1.0/bin/../lib/gcc/tricore/4.9.4/../../../../tricore/lib/tc161\libos.a(libos_abort.o)
 .debug_info    0x00000000001b6150      0x4d9 c:/hightec/toolchains/tricore/v4.9.3.0-infineon-1.0/bin/../lib/gcc/tricore/4.9.4/../../../../tricore/lib/tc161\libm.a(lib_a-s_atan.o)
 .debug_info    0x00000000001b6629      0x34f c:/hightec/toolchains/tricore/v4.9.3.0-infineon-1.0/bin/../lib/gcc/tricore/4.9.4/../../../../tricore/lib/tc161\libm.a(lib_a-s_fabs.o)
 .debug_info    0x00000000001b6978      0x331 c:/hightec/toolchains/tricore/v4.9.3.0-infineon-1.0/bin/../lib/gcc/tricore/4.9.4/../../../../tricore/lib/tc161\libm.a(lib_a-wf_sincos.o)
 .debug_info    0x00000000001b6ca9      0x3e8 c:/hightec/toolchains/tricore/v4.9.3.0-infineon-1.0/bin/../lib/gcc/tricore/4.9.4/../../../../tricore/lib/tc161\libm.a(lib_a-sf_cos.o)
 .debug_info    0x00000000001b7091      0x3cd c:/hightec/toolchains/tricore/v4.9.3.0-infineon-1.0/bin/../lib/gcc/tricore/4.9.4/../../../../tricore/lib/tc161\libm.a(lib_a-sf_sin.o)
 .debug_info    0x00000000001b745e      0x5fe c:/hightec/toolchains/tricore/v4.9.3.0-infineon-1.0/bin/../lib/gcc/tricore/4.9.4/../../../../tricore/lib/tc161\libm.a(lib_a-ef_rem_pio2.o)
 .debug_info    0x00000000001b7a5c      0x3f8 c:/hightec/toolchains/tricore/v4.9.3.0-infineon-1.0/bin/../lib/gcc/tricore/4.9.4/../../../../tricore/lib/tc161\libm.a(lib_a-kf_cos.o)
 .debug_info    0x00000000001b7e54      0x5b9 c:/hightec/toolchains/tricore/v4.9.3.0-infineon-1.0/bin/../lib/gcc/tricore/4.9.4/../../../../tricore/lib/tc161\libm.a(lib_a-kf_rem_pio2.o)
 .debug_info    0x00000000001b840d      0x38e c:/hightec/toolchains/tricore/v4.9.3.0-infineon-1.0/bin/../lib/gcc/tricore/4.9.4/../../../../tricore/lib/tc161\libm.a(lib_a-kf_sin.o)
 .debug_info    0x00000000001b879b      0x2cd c:/hightec/toolchains/tricore/v4.9.3.0-infineon-1.0/bin/../lib/gcc/tricore/4.9.4/../../../../tricore/lib/tc161\libm.a(lib_a-sf_fabs.o)
 .debug_info    0x00000000001b8a68      0x39a c:/hightec/toolchains/tricore/v4.9.3.0-infineon-1.0/bin/../lib/gcc/tricore/4.9.4/../../../../tricore/lib/tc161\libm.a(lib_a-sf_floor.o)
 .debug_info    0x00000000001b8e02      0x44d c:/hightec/toolchains/tricore/v4.9.3.0-infineon-1.0/bin/../lib/gcc/tricore/4.9.4/../../../../tricore/lib/tc161\libm.a(lib_a-sf_scalbn.o)
 .debug_info    0x00000000001b924f      0x2f0 c:/hightec/toolchains/tricore/v4.9.3.0-infineon-1.0/bin/../lib/gcc/tricore/4.9.4/../../../../tricore/lib/tc161\libm.a(lib_a-sf_copysign.o)
 .debug_info    0x00000000001b953f      0x5dd c:/hightec/toolchains/tricore/v4.9.3.0-infineon-1.0/bin/../lib/gcc/tricore/4.9.4/tc161\libgcc.a(_eq_df.o)
 .debug_info    0x00000000001b9b1c      0x5dd c:/hightec/toolchains/tricore/v4.9.3.0-infineon-1.0/bin/../lib/gcc/tricore/4.9.4/tc161\libgcc.a(_ne_df.o)
 .debug_info    0x00000000001ba0f9      0x33a c:/hightec/toolchains/tricore/v4.9.3.0-infineon-1.0/bin/../lib/gcc/tricore/4.9.4/tc161\libgcc.a(umoddi3.o)

.debug_abbrev   memory region -> *default*
                0x0000000000000000     0xf388
 *(.debug_abbrev)
 .debug_abbrev  0x0000000000000000      0x13d obj/asw.c.o
 .debug_abbrev  0x000000000000013d      0x550 obj/bsw.c.o
 .debug_abbrev  0x000000000000068d      0x177 obj/ee_applcfg.c.o
 .debug_abbrev  0x0000000000000804      0x36b obj/hall_Driver.c.o
 .debug_abbrev  0x0000000000000b6f      0x282 obj/illd/Libraries/iLLD/TC27D/Tricore/Gtm/Std/IfxGtm.c.o
 .debug_abbrev  0x0000000000000df1      0x421 obj/illd/Libraries/iLLD/TC27D/Tricore/Gtm/Std/IfxGtm_Cmu.c.o
 .debug_abbrev  0x0000000000001212      0x1b7 obj/illd/Libraries/iLLD/TC27D/Tricore/Gtm/Std/IfxGtm_Dpll.c.o
 .debug_abbrev  0x00000000000013c9      0x486 obj/illd/Libraries/iLLD/TC27D/Tricore/Gtm/Std/IfxGtm_Tom.c.o
 .debug_abbrev  0x000000000000184f      0x382 obj/illd/Libraries/iLLD/TC27D/Tricore/Gtm/Tom/Pwm/IfxGtm_Tom_Pwm.c.o
 .debug_abbrev  0x0000000000001bd1      0x487 obj/illd/Libraries/iLLD/TC27D/Tricore/Vadc/std/IfxVadc.c.o
 .debug_abbrev  0x0000000000002058       0x8e obj/illd/Libraries/iLLD/TC27D/Tricore/_Impl/IfxVadc_cfg.c.o
 .debug_abbrev  0x00000000000020e6      0x31f obj/illd/Libraries/iLLD/TC27D/Tricore/_PinMap/IfxGtm_PinMap.c.o
 .debug_abbrev  0x0000000000002405      0x142 obj/illd/Libraries/iLLD/TC27D/Tricore/_PinMap/IfxPort_PinMap.c.o
 .debug_abbrev  0x0000000000002547      0x2c5 obj/illd/src/Bsp.c.o
 .debug_abbrev  0x000000000000280c       0xab obj/illd/src/CompilerGnuc.c.o
 .debug_abbrev  0x00000000000028b7      0x4af obj/illd/src/IfxAsclin.c.o
 .debug_abbrev  0x0000000000002d66      0x595 obj/illd/src/IfxAsclin_Asc.c.o
 .debug_abbrev  0x00000000000032fb      0x178 obj/illd/src/IfxAsclin_PinMap.c.o
 .debug_abbrev  0x0000000000003473      0x14e obj/illd/src/IfxAsclin_cfg.c.o
 .debug_abbrev  0x00000000000035c1      0x490 obj/illd/src/IfxCpu.c.o
 .debug_abbrev  0x0000000000003a51      0x15f obj/illd/src/IfxCpu_Irq.c.o
 .debug_abbrev  0x0000000000003bb0      0x175 obj/illd/src/IfxCpu_cfg.c.o
 .debug_abbrev  0x0000000000003d25      0x398 obj/illd/src/IfxPort.c.o
 .debug_abbrev  0x00000000000040bd      0x15d obj/illd/src/IfxPort_cfg.c.o
 .debug_abbrev  0x000000000000421a      0x512 obj/illd/src/IfxScuCcu.c.o
 .debug_abbrev  0x000000000000472c      0x2d6 obj/illd/src/IfxScuEru.c.o
 .debug_abbrev  0x0000000000004a02      0x3aa obj/illd/src/IfxScuWdt.c.o
 .debug_abbrev  0x0000000000004dac      0x17f obj/illd/src/IfxScu_PinMap.c.o
 .debug_abbrev  0x0000000000004f2b       0x19 obj/illd/src/IfxSrc.c.o
 .debug_abbrev  0x0000000000004f44      0x180 obj/illd/src/IfxStdIf_DPipe.c.o
 .debug_abbrev  0x00000000000050c4      0x42c obj/illd/src/IfxStm.c.o
 .debug_abbrev  0x00000000000054f0      0x124 obj/illd/src/IfxStm_cfg.c.o
 .debug_abbrev  0x0000000000005614      0x532 obj/illd/src/IfxVadc_Adc.c.o
 .debug_abbrev  0x0000000000005b46       0xe3 obj/illd/src/Ifx_CircularBuffer.c.o
 .debug_abbrev  0x0000000000005c29      0x457 obj/illd/src/Ifx_Fifo.c.o
 .debug_abbrev  0x0000000000006080      0x4d2 obj/motor_driver.c.o
 .debug_abbrev  0x0000000000006552      0x37f obj/shiparker_App.c.o
 .debug_abbrev  0x00000000000068d1      0x2db obj/steering_Pid.c.o
 .debug_abbrev  0x0000000000006bac      0x3bd obj/uart_Driver.c.o
 .debug_abbrev  0x0000000000006f69      0x364 obj/ultrasonic_Driver.c.o
 .debug_abbrev  0x00000000000072cd      0x3b9 C:\Users\USER\Desktop\AUTODR~1\TC275\erika\lib\libee.a(ee_tc_cstart.c.o)
 .debug_abbrev  0x0000000000007686      0x306 C:\Users\USER\Desktop\AUTODR~1\TC275\erika\lib\libee.a(ee_tc_system.c.o)
 .debug_abbrev  0x000000000000798c      0x13d C:\Users\USER\Desktop\AUTODR~1\TC275\erika\lib\libee.a(ee_tc_trapvec.c.o)
 .debug_abbrev  0x0000000000007ac9      0x1b5 C:\Users\USER\Desktop\AUTODR~1\TC275\erika\lib\libee.a(ee_tc_intvec.c.o)
 .debug_abbrev  0x0000000000007c7e      0x488 C:\Users\USER\Desktop\AUTODR~1\TC275\erika\lib\libee.a(ee_oo_api_osek.c.o)
 .debug_abbrev  0x0000000000008106      0x39a C:\Users\USER\Desktop\AUTODR~1\TC275\erika\lib\libee.a(ee_oo_sched_entry_points.c.o)
 .debug_abbrev  0x00000000000084a0      0x2f5 C:\Users\USER\Desktop\AUTODR~1\TC275\erika\lib\libee.a(ee_oo_scheduler.c.o)
 .debug_abbrev  0x0000000000008795      0x218 C:\Users\USER\Desktop\AUTODR~1\TC275\erika\lib\libee.a(ee_oo_kernel.c.o)
 .debug_abbrev  0x00000000000089ad      0x3ad C:\Users\USER\Desktop\AUTODR~1\TC275\erika\lib\libee.a(ee_oo_sched_partitioned.c.o)
 .debug_abbrev  0x0000000000008d5a      0x3ad C:\Users\USER\Desktop\AUTODR~1\TC275\erika\lib\libee.a(ee_oo_counter.c.o)
 .debug_abbrev  0x0000000000009107      0x2a2 C:\Users\USER\Desktop\AUTODR~1\TC275\erika\lib\libee.a(ee_oo_alarm.c.o)
 .debug_abbrev  0x00000000000093a9      0x1f1 C:\Users\USER\Desktop\AUTODR~1\TC275\erika\lib\libee.a(ee_std_change_context.c.o)
 .debug_abbrev  0x000000000000959a      0x227 C:\Users\USER\Desktop\AUTODR~1\TC275\erika\lib\libee.a(ee_tc_hal.c.o)
 .debug_abbrev  0x00000000000097c1      0x368 C:\Users\USER\Desktop\AUTODR~1\TC275\erika\lib\libee.a(ee_tc_ctx.c.o)
 .debug_abbrev  0x0000000000009b29       0x14 c:/hightec/toolchains/tricore/v4.9.3.0-infineon-1.0/bin/../lib/gcc/tricore/4.9.4/tc161\libgcc.a(_lshrdi3.o)
 .debug_abbrev  0x0000000000009b3d       0x54 c:/hightec/toolchains/tricore/v4.9.3.0-infineon-1.0/bin/../lib/gcc/tricore/4.9.4/tc161\libgcc.a(_fixunsdfsi.o)
 .debug_abbrev  0x0000000000009b91       0x63 c:/hightec/toolchains/tricore/v4.9.3.0-infineon-1.0/bin/../lib/gcc/tricore/4.9.4/tc161\libgcc.a(_floatundidf.o)
 .debug_abbrev  0x0000000000009bf4      0x181 c:/hightec/toolchains/tricore/v4.9.3.0-infineon-1.0/bin/../lib/gcc/tricore/4.9.4/tc161\libgcc.a(_sf_to_df.o)
 .debug_abbrev  0x0000000000009d75      0x1e4 c:/hightec/toolchains/tricore/v4.9.3.0-infineon-1.0/bin/../lib/gcc/tricore/4.9.4/tc161\libgcc.a(_addsub_df.o)
 .debug_abbrev  0x0000000000009f59      0x217 c:/hightec/toolchains/tricore/v4.9.3.0-infineon-1.0/bin/../lib/gcc/tricore/4.9.4/tc161\libgcc.a(_mul_df.o)
 .debug_abbrev  0x000000000000a170      0x214 c:/hightec/toolchains/tricore/v4.9.3.0-infineon-1.0/bin/../lib/gcc/tricore/4.9.4/tc161\libgcc.a(_div_df.o)
 .debug_abbrev  0x000000000000a384      0x19e c:/hightec/toolchains/tricore/v4.9.3.0-infineon-1.0/bin/../lib/gcc/tricore/4.9.4/tc161\libgcc.a(_gt_df.o)
 .debug_abbrev  0x000000000000a522      0x19e c:/hightec/toolchains/tricore/v4.9.3.0-infineon-1.0/bin/../lib/gcc/tricore/4.9.4/tc161\libgcc.a(_ge_df.o)
 .debug_abbrev  0x000000000000a6c0      0x19e c:/hightec/toolchains/tricore/v4.9.3.0-infineon-1.0/bin/../lib/gcc/tricore/4.9.4/tc161\libgcc.a(_lt_df.o)
 .debug_abbrev  0x000000000000a85e      0x195 c:/hightec/toolchains/tricore/v4.9.3.0-infineon-1.0/bin/../lib/gcc/tricore/4.9.4/tc161\libgcc.a(_si_to_df.o)
 .debug_abbrev  0x000000000000a9f3      0x18d c:/hightec/toolchains/tricore/v4.9.3.0-infineon-1.0/bin/../lib/gcc/tricore/4.9.4/tc161\libgcc.a(_df_to_si.o)
 .debug_abbrev  0x000000000000ab80      0x139 c:/hightec/toolchains/tricore/v4.9.3.0-infineon-1.0/bin/../lib/gcc/tricore/4.9.4/tc161\libgcc.a(_make_df.o)
 .debug_abbrev  0x000000000000acb9      0x190 c:/hightec/toolchains/tricore/v4.9.3.0-infineon-1.0/bin/../lib/gcc/tricore/4.9.4/tc161\libgcc.a(_df_to_sf.o)
 .debug_abbrev  0x000000000000ae49       0xab c:/hightec/toolchains/tricore/v4.9.3.0-infineon-1.0/bin/../lib/gcc/tricore/4.9.4/tc161\libgcc.a(_thenan_df.o)
 .debug_abbrev  0x000000000000aef4      0x198 c:/hightec/toolchains/tricore/v4.9.3.0-infineon-1.0/bin/../lib/gcc/tricore/4.9.4/tc161\libgcc.a(_usi_to_df.o)
 .debug_abbrev  0x000000000000b08c       0xb8 c:/hightec/toolchains/tricore/v4.9.3.0-infineon-1.0/bin/../lib/gcc/tricore/4.9.4/tc161\libgcc.a(udivdi3.o)
 .debug_abbrev  0x000000000000b144       0x14 c:/hightec/toolchains/tricore/v4.9.3.0-infineon-1.0/bin/../lib/gcc/tricore/4.9.4/tc161\libgcc.a(_ashldi3.o)
 .debug_abbrev  0x000000000000b158      0x13a c:/hightec/toolchains/tricore/v4.9.3.0-infineon-1.0/bin/../lib/gcc/tricore/4.9.4/tc161\libgcc.a(_unpack_sf.o)
 .debug_abbrev  0x000000000000b292      0x12a c:/hightec/toolchains/tricore/v4.9.3.0-infineon-1.0/bin/../lib/gcc/tricore/4.9.4/tc161\libgcc.a(_make_sf.o)
 .debug_abbrev  0x000000000000b3bc      0x19d c:/hightec/toolchains/tricore/v4.9.3.0-infineon-1.0/bin/../lib/gcc/tricore/4.9.4/tc161\libgcc.a(_pack_df.o)
 .debug_abbrev  0x000000000000b559      0x147 c:/hightec/toolchains/tricore/v4.9.3.0-infineon-1.0/bin/../lib/gcc/tricore/4.9.4/tc161\libgcc.a(_unpack_df.o)
 .debug_abbrev  0x000000000000b6a0      0x11d c:/hightec/toolchains/tricore/v4.9.3.0-infineon-1.0/bin/../lib/gcc/tricore/4.9.4/tc161\libgcc.a(_fpcmp_parts_df.o)
 .debug_abbrev  0x000000000000b7bd       0xa9 c:/hightec/toolchains/tricore/v4.9.3.0-infineon-1.0/bin/../lib/gcc/tricore/4.9.4/tc161\libgcc.a(udiv6432.o)
 .debug_abbrev  0x000000000000b866      0x183 c:/hightec/toolchains/tricore/v4.9.3.0-infineon-1.0/bin/../lib/gcc/tricore/4.9.4/tc161\libgcc.a(_pack_sf.o)
 .debug_abbrev  0x000000000000b9e9      0x200 c:/hightec/toolchains/tricore/v4.9.3.0-infineon-1.0/bin/../lib/gcc/tricore/4.9.4/../../../../tricore/lib/tc161\libc.a(lib_a-malloc.o)
 .debug_abbrev  0x000000000000bbe9      0x299 c:/hightec/toolchains/tricore/v4.9.3.0-infineon-1.0/bin/../lib/gcc/tricore/4.9.4/../../../../tricore/lib/tc161\libc.a(lib_a-mallocr.o)
 .debug_abbrev  0x000000000000be82      0x1a0 c:/hightec/toolchains/tricore/v4.9.3.0-infineon-1.0/bin/../lib/gcc/tricore/4.9.4/../../../../tricore/lib/tc161\libc.a(lib_a-mlock.o)
 .debug_abbrev  0x000000000000c022      0x1f4 c:/hightec/toolchains/tricore/v4.9.3.0-infineon-1.0/bin/../lib/gcc/tricore/4.9.4/../../../../tricore/lib/tc161\libc.a(lib_a-sbrkr.o)
 .debug_abbrev  0x000000000000c216       0x76 c:/hightec/toolchains/tricore/v4.9.3.0-infineon-1.0/bin/../lib/gcc/tricore/4.9.4/../../../../tricore/lib/tc161\libc.a(lib_a-strlen.o)
 .debug_abbrev  0x000000000000c28c      0x20c c:/hightec/toolchains/tricore/v4.9.3.0-infineon-1.0/bin/../lib/gcc/tricore/4.9.4/../../../../tricore/lib/tc161\libc.a(lib_a-vsnprintf.o)
 .debug_abbrev  0x000000000000c498      0x228 c:/hightec/toolchains/tricore/v4.9.3.0-infineon-1.0/bin/../lib/gcc/tricore/4.9.4/../../../../tricore/lib/tc161\libc.a(lib_a-vsprintf.o)
 .debug_abbrev  0x000000000000c6c0      0x24e c:/hightec/toolchains/tricore/v4.9.3.0-infineon-1.0/bin/../lib/gcc/tricore/4.9.4/../../../../tricore/lib/tc161\libc.a(lib_a-freer.o)
 .debug_abbrev  0x000000000000c90e      0x184 c:/hightec/toolchains/tricore/v4.9.3.0-infineon-1.0/bin/../lib/gcc/tricore/4.9.4/../../../../tricore/lib/tc161\libc.a(lib_a-impure.o)
 .debug_abbrev  0x000000000000ca92      0x279 c:/hightec/toolchains/tricore/v4.9.3.0-infineon-1.0/bin/../lib/gcc/tricore/4.9.4/../../../../tricore/lib/tc161\libc.a(lib_a-reent.o)
 .debug_abbrev  0x000000000000cd0b      0x2ff c:/hightec/toolchains/tricore/v4.9.3.0-infineon-1.0/bin/../lib/gcc/tricore/4.9.4/../../../../tricore/lib/tc161\libc.a(lib_a-svfprintf.o)
 .debug_abbrev  0x000000000000d00a      0x290 c:/hightec/toolchains/tricore/v4.9.3.0-infineon-1.0/bin/../lib/gcc/tricore/4.9.4/../../../../tricore/lib/tc161\libc.a(lib_a-dtoa.o)
 .debug_abbrev  0x000000000000d29a      0x2c8 c:/hightec/toolchains/tricore/v4.9.3.0-infineon-1.0/bin/../lib/gcc/tricore/4.9.4/../../../../tricore/lib/tc161\libc.a(lib_a-locale.o)
 .debug_abbrev  0x000000000000d562       0x84 c:/hightec/toolchains/tricore/v4.9.3.0-infineon-1.0/bin/../lib/gcc/tricore/4.9.4/../../../../tricore/lib/tc161\libc.a(lib_a-memchr.o)
 .debug_abbrev  0x000000000000d5e6       0x8c c:/hightec/toolchains/tricore/v4.9.3.0-infineon-1.0/bin/../lib/gcc/tricore/4.9.4/../../../../tricore/lib/tc161\libc.a(lib_a-memcpy.o)
 .debug_abbrev  0x000000000000d672      0x304 c:/hightec/toolchains/tricore/v4.9.3.0-infineon-1.0/bin/../lib/gcc/tricore/4.9.4/../../../../tricore/lib/tc161\libc.a(lib_a-mprec.o)
 .debug_abbrev  0x000000000000d976       0x75 c:/hightec/toolchains/tricore/v4.9.3.0-infineon-1.0/bin/../lib/gcc/tricore/4.9.4/../../../../tricore/lib/tc161\libc.a(lib_a-s_fpclassify.o)
 .debug_abbrev  0x000000000000d9eb       0x5a c:/hightec/toolchains/tricore/v4.9.3.0-infineon-1.0/bin/../lib/gcc/tricore/4.9.4/../../../../tricore/lib/tc161\libc.a(lib_a-strcmp.o)
 .debug_abbrev  0x000000000000da45      0x2b8 c:/hightec/toolchains/tricore/v4.9.3.0-infineon-1.0/bin/../lib/gcc/tricore/4.9.4/../../../../tricore/lib/tc161\libc.a(lib_a-svfiprintf.o)
 .debug_abbrev  0x000000000000dcfd      0x1ee c:/hightec/toolchains/tricore/v4.9.3.0-infineon-1.0/bin/../lib/gcc/tricore/4.9.4/../../../../tricore/lib/tc161\libc.a(lib_a-callocr.o)
 .debug_abbrev  0x000000000000deeb       0x84 c:/hightec/toolchains/tricore/v4.9.3.0-infineon-1.0/bin/../lib/gcc/tricore/4.9.4/../../../../tricore/lib/tc161\libc.a(lib_a-memmove.o)
 .debug_abbrev  0x000000000000df6f       0x85 c:/hightec/toolchains/tricore/v4.9.3.0-infineon-1.0/bin/../lib/gcc/tricore/4.9.4/../../../../tricore/lib/tc161\libc.a(lib_a-memset.o)
 .debug_abbrev  0x000000000000dff4      0x26b c:/hightec/toolchains/tricore/v4.9.3.0-infineon-1.0/bin/../lib/gcc/tricore/4.9.4/../../../../tricore/lib/tc161\libc.a(lib_a-reallocr.o)
 .debug_abbrev  0x000000000000e25f       0x64 c:/hightec/toolchains/tricore/v4.9.3.0-infineon-1.0/bin/../lib/gcc/tricore/4.9.4/../../../../tricore/lib/tc161\libos.a(libos_exit.o)
 .debug_abbrev  0x000000000000e2c3       0xc7 c:/hightec/toolchains/tricore/v4.9.3.0-infineon-1.0/bin/../lib/gcc/tricore/4.9.4/../../../../tricore/lib/tc161\libos.a(libos_sbrk.o)
 .debug_abbrev  0x000000000000e38a      0x131 c:/hightec/toolchains/tricore/v4.9.3.0-infineon-1.0/bin/../lib/gcc/tricore/4.9.4/../../../../tricore/lib/tc161\libos.a(libos.o)
 .debug_abbrev  0x000000000000e4bb       0x37 c:/hightec/toolchains/tricore/v4.9.3.0-infineon-1.0/bin/../lib/gcc/tricore/4.9.4/../../../../tricore/lib/tc161\libos.a(libos_abort.o)
 .debug_abbrev  0x000000000000e4f2      0x11f c:/hightec/toolchains/tricore/v4.9.3.0-infineon-1.0/bin/../lib/gcc/tricore/4.9.4/../../../../tricore/lib/tc161\libm.a(lib_a-s_atan.o)
 .debug_abbrev  0x000000000000e611       0xc1 c:/hightec/toolchains/tricore/v4.9.3.0-infineon-1.0/bin/../lib/gcc/tricore/4.9.4/../../../../tricore/lib/tc161\libm.a(lib_a-s_fabs.o)
 .debug_abbrev  0x000000000000e6d2       0xa6 c:/hightec/toolchains/tricore/v4.9.3.0-infineon-1.0/bin/../lib/gcc/tricore/4.9.4/../../../../tricore/lib/tc161\libm.a(lib_a-wf_sincos.o)
 .debug_abbrev  0x000000000000e778      0x117 c:/hightec/toolchains/tricore/v4.9.3.0-infineon-1.0/bin/../lib/gcc/tricore/4.9.4/../../../../tricore/lib/tc161\libm.a(lib_a-sf_cos.o)
 .debug_abbrev  0x000000000000e88f      0x102 c:/hightec/toolchains/tricore/v4.9.3.0-infineon-1.0/bin/../lib/gcc/tricore/4.9.4/../../../../tricore/lib/tc161\libm.a(lib_a-sf_sin.o)
 .debug_abbrev  0x000000000000e991      0x136 c:/hightec/toolchains/tricore/v4.9.3.0-infineon-1.0/bin/../lib/gcc/tricore/4.9.4/../../../../tricore/lib/tc161\libm.a(lib_a-ef_rem_pio2.o)
 .debug_abbrev  0x000000000000eac7       0xc8 c:/hightec/toolchains/tricore/v4.9.3.0-infineon-1.0/bin/../lib/gcc/tricore/4.9.4/../../../../tricore/lib/tc161\libm.a(lib_a-kf_cos.o)
 .debug_abbrev  0x000000000000eb8f      0x106 c:/hightec/toolchains/tricore/v4.9.3.0-infineon-1.0/bin/../lib/gcc/tricore/4.9.4/../../../../tricore/lib/tc161\libm.a(lib_a-kf_rem_pio2.o)
 .debug_abbrev  0x000000000000ec95       0x9c c:/hightec/toolchains/tricore/v4.9.3.0-infineon-1.0/bin/../lib/gcc/tricore/4.9.4/../../../../tricore/lib/tc161\libm.a(lib_a-kf_sin.o)
 .debug_abbrev  0x000000000000ed31       0x66 c:/hightec/toolchains/tricore/v4.9.3.0-infineon-1.0/bin/../lib/gcc/tricore/4.9.4/../../../../tricore/lib/tc161\libm.a(lib_a-sf_fabs.o)
 .debug_abbrev  0x000000000000ed97       0xd5 c:/hightec/toolchains/tricore/v4.9.3.0-infineon-1.0/bin/../lib/gcc/tricore/4.9.4/../../../../tricore/lib/tc161\libm.a(lib_a-sf_floor.o)
 .debug_abbrev  0x000000000000ee6c       0xe1 c:/hightec/toolchains/tricore/v4.9.3.0-infineon-1.0/bin/../lib/gcc/tricore/4.9.4/../../../../tricore/lib/tc161\libm.a(lib_a-sf_scalbn.o)
 .debug_abbrev  0x000000000000ef4d       0x75 c:/hightec/toolchains/tricore/v4.9.3.0-infineon-1.0/bin/../lib/gcc/tricore/4.9.4/../../../../tricore/lib/tc161\libm.a(lib_a-sf_copysign.o)
 .debug_abbrev  0x000000000000efc2      0x19e c:/hightec/toolchains/tricore/v4.9.3.0-infineon-1.0/bin/../lib/gcc/tricore/4.9.4/tc161\libgcc.a(_eq_df.o)
 .debug_abbrev  0x000000000000f160      0x19e c:/hightec/toolchains/tricore/v4.9.3.0-infineon-1.0/bin/../lib/gcc/tricore/4.9.4/tc161\libgcc.a(_ne_df.o)
 .debug_abbrev  0x000000000000f2fe       0x8a c:/hightec/toolchains/tricore/v4.9.3.0-infineon-1.0/bin/../lib/gcc/tricore/4.9.4/tc161\libgcc.a(umoddi3.o)

.debug_line     memory region -> *default*
                0x0000000000000000    0x11c97
 *(.debug_line)
 .debug_line    0x0000000000000000      0x1f4 obj/asw.c.o
 .debug_line    0x00000000000001f4      0xb1e obj/bsw.c.o
 .debug_line    0x0000000000000d12      0x17b obj/ee_applcfg.c.o
 .debug_line    0x0000000000000e8d      0x52f obj/hall_Driver.c.o
 .debug_line    0x00000000000013bc      0x252 obj/illd/Libraries/iLLD/TC27D/Tricore/Gtm/Std/IfxGtm.c.o
 .debug_line    0x000000000000160e      0x393 obj/illd/Libraries/iLLD/TC27D/Tricore/Gtm/Std/IfxGtm_Cmu.c.o
 .debug_line    0x00000000000019a1      0x1a9 obj/illd/Libraries/iLLD/TC27D/Tricore/Gtm/Std/IfxGtm_Dpll.c.o
 .debug_line    0x0000000000001b4a      0x47a obj/illd/Libraries/iLLD/TC27D/Tricore/Gtm/Std/IfxGtm_Tom.c.o
 .debug_line    0x0000000000001fc4      0x422 obj/illd/Libraries/iLLD/TC27D/Tricore/Gtm/Tom/Pwm/IfxGtm_Tom_Pwm.c.o
 .debug_line    0x00000000000023e6      0x432 obj/illd/Libraries/iLLD/TC27D/Tricore/Vadc/std/IfxVadc.c.o
 .debug_line    0x0000000000002818      0x13a obj/illd/Libraries/iLLD/TC27D/Tricore/_Impl/IfxVadc_cfg.c.o
 .debug_line    0x0000000000002952      0x2fc obj/illd/Libraries/iLLD/TC27D/Tricore/_PinMap/IfxGtm_PinMap.c.o
 .debug_line    0x0000000000002c4e      0x19d obj/illd/Libraries/iLLD/TC27D/Tricore/_PinMap/IfxPort_PinMap.c.o
 .debug_line    0x0000000000002deb      0x2e1 obj/illd/src/Bsp.c.o
 .debug_line    0x00000000000030cc      0x107 obj/illd/src/CompilerGnuc.c.o
 .debug_line    0x00000000000031d3      0x4a0 obj/illd/src/IfxAsclin.c.o
 .debug_line    0x0000000000003673      0xaa3 obj/illd/src/IfxAsclin_Asc.c.o
 .debug_line    0x0000000000004116      0x208 obj/illd/src/IfxAsclin_PinMap.c.o
 .debug_line    0x000000000000431e      0x18f obj/illd/src/IfxAsclin_cfg.c.o
 .debug_line    0x00000000000044ad      0x38c obj/illd/src/IfxCpu.c.o
 .debug_line    0x0000000000004839      0x19c obj/illd/src/IfxCpu_Irq.c.o
 .debug_line    0x00000000000049d5      0x186 obj/illd/src/IfxCpu_cfg.c.o
 .debug_line    0x0000000000004b5b      0x40f obj/illd/src/IfxPort.c.o
 .debug_line    0x0000000000004f6a      0x189 obj/illd/src/IfxPort_cfg.c.o
 .debug_line    0x00000000000050f3      0x68e obj/illd/src/IfxScuCcu.c.o
 .debug_line    0x0000000000005781      0x277 obj/illd/src/IfxScuEru.c.o
 .debug_line    0x00000000000059f8      0x473 obj/illd/src/IfxScuWdt.c.o
 .debug_line    0x0000000000005e6b      0x1ff obj/illd/src/IfxScu_PinMap.c.o
 .debug_line    0x000000000000606a        0x0 obj/illd/src/IfxScu_cfg.c.o
 .debug_line    0x000000000000606a       0x1d obj/illd/src/IfxSrc.c.o
 .debug_line    0x0000000000006087        0x0 obj/illd/src/IfxSrc_cfg.c.o
 .debug_line    0x0000000000006087      0x237 obj/illd/src/IfxStdIf_DPipe.c.o
 .debug_line    0x00000000000062be      0x3d7 obj/illd/src/IfxStm.c.o
 .debug_line    0x0000000000006695      0x186 obj/illd/src/IfxStm_cfg.c.o
 .debug_line    0x000000000000681b      0xb34 obj/illd/src/IfxVadc_Adc.c.o
 .debug_line    0x000000000000734f      0x136 obj/illd/src/Ifx_CircularBuffer.c.o
 .debug_line    0x0000000000007485      0x799 obj/illd/src/Ifx_Fifo.c.o
 .debug_line    0x0000000000007c1e      0x800 obj/motor_driver.c.o
 .debug_line    0x000000000000841e      0x4a0 obj/shiparker_App.c.o
 .debug_line    0x00000000000088be      0x30c obj/steering_Pid.c.o
 .debug_line    0x0000000000008bca      0x5bc obj/uart_Driver.c.o
 .debug_line    0x0000000000009186      0x37f obj/ultrasonic_Driver.c.o
 .debug_line    0x0000000000009505      0x3d9 C:\Users\USER\Desktop\AUTODR~1\TC275\erika\lib\libee.a(ee_tc_cstart.c.o)
 .debug_line    0x00000000000098de      0x369 C:\Users\USER\Desktop\AUTODR~1\TC275\erika\lib\libee.a(ee_tc_system.c.o)
 .debug_line    0x0000000000009c47      0x187 C:\Users\USER\Desktop\AUTODR~1\TC275\erika\lib\libee.a(ee_tc_trapvec.c.o)
 .debug_line    0x0000000000009dce      0x1ff C:\Users\USER\Desktop\AUTODR~1\TC275\erika\lib\libee.a(ee_tc_intvec.c.o)
 .debug_line    0x0000000000009fcd      0x7ce C:\Users\USER\Desktop\AUTODR~1\TC275\erika\lib\libee.a(ee_oo_api_osek.c.o)
 .debug_line    0x000000000000a79b      0x2a1 C:\Users\USER\Desktop\AUTODR~1\TC275\erika\lib\libee.a(ee_oo_sched_entry_points.c.o)
 .debug_line    0x000000000000aa3c      0x279 C:\Users\USER\Desktop\AUTODR~1\TC275\erika\lib\libee.a(ee_oo_scheduler.c.o)
 .debug_line    0x000000000000acb5      0x216 C:\Users\USER\Desktop\AUTODR~1\TC275\erika\lib\libee.a(ee_oo_kernel.c.o)
 .debug_line    0x000000000000aecb      0x2cf C:\Users\USER\Desktop\AUTODR~1\TC275\erika\lib\libee.a(ee_oo_sched_partitioned.c.o)
 .debug_line    0x000000000000b19a      0x2b7 C:\Users\USER\Desktop\AUTODR~1\TC275\erika\lib\libee.a(ee_oo_counter.c.o)
 .debug_line    0x000000000000b451      0x24c C:\Users\USER\Desktop\AUTODR~1\TC275\erika\lib\libee.a(ee_oo_alarm.c.o)
 .debug_line    0x000000000000b69d      0x219 C:\Users\USER\Desktop\AUTODR~1\TC275\erika\lib\libee.a(ee_std_change_context.c.o)
 .debug_line    0x000000000000b8b6      0x24d C:\Users\USER\Desktop\AUTODR~1\TC275\erika\lib\libee.a(ee_tc_hal.c.o)
 .debug_line    0x000000000000bb03      0x31e C:\Users\USER\Desktop\AUTODR~1\TC275\erika\lib\libee.a(ee_tc_ctx.c.o)
 .debug_line    0x000000000000be21       0x78 c:/hightec/toolchains/tricore/v4.9.3.0-infineon-1.0/bin/../lib/gcc/tricore/4.9.4/tc161\libgcc.a(_lshrdi3.o)
 .debug_line    0x000000000000be99       0x70 c:/hightec/toolchains/tricore/v4.9.3.0-infineon-1.0/bin/../lib/gcc/tricore/4.9.4/tc161\libgcc.a(_fixunsdfsi.o)
 .debug_line    0x000000000000bf09       0x73 c:/hightec/toolchains/tricore/v4.9.3.0-infineon-1.0/bin/../lib/gcc/tricore/4.9.4/tc161\libgcc.a(_floatundidf.o)
 .debug_line    0x000000000000bf7c       0x6c c:/hightec/toolchains/tricore/v4.9.3.0-infineon-1.0/bin/../lib/gcc/tricore/4.9.4/tc161\libgcc.a(_sf_to_df.o)
 .debug_line    0x000000000000bfe8       0xf3 c:/hightec/toolchains/tricore/v4.9.3.0-infineon-1.0/bin/../lib/gcc/tricore/4.9.4/tc161\libgcc.a(_addsub_df.o)
 .debug_line    0x000000000000c0db       0xc1 c:/hightec/toolchains/tricore/v4.9.3.0-infineon-1.0/bin/../lib/gcc/tricore/4.9.4/tc161\libgcc.a(_mul_df.o)
 .debug_line    0x000000000000c19c       0xac c:/hightec/toolchains/tricore/v4.9.3.0-infineon-1.0/bin/../lib/gcc/tricore/4.9.4/tc161\libgcc.a(_div_df.o)
 .debug_line    0x000000000000c248       0x78 c:/hightec/toolchains/tricore/v4.9.3.0-infineon-1.0/bin/../lib/gcc/tricore/4.9.4/tc161\libgcc.a(_gt_df.o)
 .debug_line    0x000000000000c2c0       0x78 c:/hightec/toolchains/tricore/v4.9.3.0-infineon-1.0/bin/../lib/gcc/tricore/4.9.4/tc161\libgcc.a(_ge_df.o)
 .debug_line    0x000000000000c338       0x78 c:/hightec/toolchains/tricore/v4.9.3.0-infineon-1.0/bin/../lib/gcc/tricore/4.9.4/tc161\libgcc.a(_lt_df.o)
 .debug_line    0x000000000000c3b0       0x7d c:/hightec/toolchains/tricore/v4.9.3.0-infineon-1.0/bin/../lib/gcc/tricore/4.9.4/tc161\libgcc.a(_si_to_df.o)
 .debug_line    0x000000000000c42d       0x74 c:/hightec/toolchains/tricore/v4.9.3.0-infineon-1.0/bin/../lib/gcc/tricore/4.9.4/tc161\libgcc.a(_df_to_si.o)
 .debug_line    0x000000000000c4a1       0x6e c:/hightec/toolchains/tricore/v4.9.3.0-infineon-1.0/bin/../lib/gcc/tricore/4.9.4/tc161\libgcc.a(_make_df.o)
 .debug_line    0x000000000000c50f       0x73 c:/hightec/toolchains/tricore/v4.9.3.0-infineon-1.0/bin/../lib/gcc/tricore/4.9.4/tc161\libgcc.a(_df_to_sf.o)
 .debug_line    0x000000000000c582       0x57 c:/hightec/toolchains/tricore/v4.9.3.0-infineon-1.0/bin/../lib/gcc/tricore/4.9.4/tc161\libgcc.a(_thenan_df.o)
 .debug_line    0x000000000000c5d9       0x78 c:/hightec/toolchains/tricore/v4.9.3.0-infineon-1.0/bin/../lib/gcc/tricore/4.9.4/tc161\libgcc.a(_usi_to_df.o)
 .debug_line    0x000000000000c651       0xe4 c:/hightec/toolchains/tricore/v4.9.3.0-infineon-1.0/bin/../lib/gcc/tricore/4.9.4/tc161\libgcc.a(udivdi3.o)
 .debug_line    0x000000000000c735       0x74 c:/hightec/toolchains/tricore/v4.9.3.0-infineon-1.0/bin/../lib/gcc/tricore/4.9.4/tc161\libgcc.a(_ashldi3.o)
 .debug_line    0x000000000000c7a9       0x88 c:/hightec/toolchains/tricore/v4.9.3.0-infineon-1.0/bin/../lib/gcc/tricore/4.9.4/tc161\libgcc.a(_unpack_sf.o)
 .debug_line    0x000000000000c831       0x6d c:/hightec/toolchains/tricore/v4.9.3.0-infineon-1.0/bin/../lib/gcc/tricore/4.9.4/tc161\libgcc.a(_make_sf.o)
 .debug_line    0x000000000000c89e       0xb0 c:/hightec/toolchains/tricore/v4.9.3.0-infineon-1.0/bin/../lib/gcc/tricore/4.9.4/tc161\libgcc.a(_pack_df.o)
 .debug_line    0x000000000000c94e       0x91 c:/hightec/toolchains/tricore/v4.9.3.0-infineon-1.0/bin/../lib/gcc/tricore/4.9.4/tc161\libgcc.a(_unpack_df.o)
 .debug_line    0x000000000000c9df       0xa8 c:/hightec/toolchains/tricore/v4.9.3.0-infineon-1.0/bin/../lib/gcc/tricore/4.9.4/tc161\libgcc.a(_fpcmp_parts_df.o)
 .debug_line    0x000000000000ca87       0xfa c:/hightec/toolchains/tricore/v4.9.3.0-infineon-1.0/bin/../lib/gcc/tricore/4.9.4/tc161\libgcc.a(udiv6432.o)
 .debug_line    0x000000000000cb81       0xac c:/hightec/toolchains/tricore/v4.9.3.0-infineon-1.0/bin/../lib/gcc/tricore/4.9.4/tc161\libgcc.a(_pack_sf.o)
 .debug_line    0x000000000000cc2d      0x1a5 c:/hightec/toolchains/tricore/v4.9.3.0-infineon-1.0/bin/../lib/gcc/tricore/4.9.4/../../../../tricore/lib/tc161\libc.a(lib_a-malloc.o)
 .debug_line    0x000000000000cdd2      0x304 c:/hightec/toolchains/tricore/v4.9.3.0-infineon-1.0/bin/../lib/gcc/tricore/4.9.4/../../../../tricore/lib/tc161\libc.a(lib_a-mallocr.o)
 .debug_line    0x000000000000d0d6      0x145 c:/hightec/toolchains/tricore/v4.9.3.0-infineon-1.0/bin/../lib/gcc/tricore/4.9.4/../../../../tricore/lib/tc161\libc.a(lib_a-mlock.o)
 .debug_line    0x000000000000d21b      0x199 c:/hightec/toolchains/tricore/v4.9.3.0-infineon-1.0/bin/../lib/gcc/tricore/4.9.4/../../../../tricore/lib/tc161\libc.a(lib_a-sbrkr.o)
 .debug_line    0x000000000000d3b4      0x124 c:/hightec/toolchains/tricore/v4.9.3.0-infineon-1.0/bin/../lib/gcc/tricore/4.9.4/../../../../tricore/lib/tc161\libc.a(lib_a-strlen.o)
 .debug_line    0x000000000000d4d8      0x1c1 c:/hightec/toolchains/tricore/v4.9.3.0-infineon-1.0/bin/../lib/gcc/tricore/4.9.4/../../../../tricore/lib/tc161\libc.a(lib_a-vsnprintf.o)
 .debug_line    0x000000000000d699      0x1b9 c:/hightec/toolchains/tricore/v4.9.3.0-infineon-1.0/bin/../lib/gcc/tricore/4.9.4/../../../../tricore/lib/tc161\libc.a(lib_a-vsprintf.o)
 .debug_line    0x000000000000d852      0x24e c:/hightec/toolchains/tricore/v4.9.3.0-infineon-1.0/bin/../lib/gcc/tricore/4.9.4/../../../../tricore/lib/tc161\libc.a(lib_a-freer.o)
 .debug_line    0x000000000000daa0      0x127 c:/hightec/toolchains/tricore/v4.9.3.0-infineon-1.0/bin/../lib/gcc/tricore/4.9.4/../../../../tricore/lib/tc161\libc.a(lib_a-impure.o)
 .debug_line    0x000000000000dbc7      0x1f7 c:/hightec/toolchains/tricore/v4.9.3.0-infineon-1.0/bin/../lib/gcc/tricore/4.9.4/../../../../tricore/lib/tc161\libc.a(lib_a-reent.o)
 .debug_line    0x000000000000ddbe      0x71b c:/hightec/toolchains/tricore/v4.9.3.0-infineon-1.0/bin/../lib/gcc/tricore/4.9.4/../../../../tricore/lib/tc161\libc.a(lib_a-svfprintf.o)
 .debug_line    0x000000000000e4d9      0x686 c:/hightec/toolchains/tricore/v4.9.3.0-infineon-1.0/bin/../lib/gcc/tricore/4.9.4/../../../../tricore/lib/tc161\libc.a(lib_a-dtoa.o)
 .debug_line    0x000000000000eb5f      0x221 c:/hightec/toolchains/tricore/v4.9.3.0-infineon-1.0/bin/../lib/gcc/tricore/4.9.4/../../../../tricore/lib/tc161\libc.a(lib_a-locale.o)
 .debug_line    0x000000000000ed80      0x126 c:/hightec/toolchains/tricore/v4.9.3.0-infineon-1.0/bin/../lib/gcc/tricore/4.9.4/../../../../tricore/lib/tc161\libc.a(lib_a-memchr.o)
 .debug_line    0x000000000000eea6      0x126 c:/hightec/toolchains/tricore/v4.9.3.0-infineon-1.0/bin/../lib/gcc/tricore/4.9.4/../../../../tricore/lib/tc161\libc.a(lib_a-memcpy.o)
 .debug_line    0x000000000000efcc      0x64f c:/hightec/toolchains/tricore/v4.9.3.0-infineon-1.0/bin/../lib/gcc/tricore/4.9.4/../../../../tricore/lib/tc161\libc.a(lib_a-mprec.o)
 .debug_line    0x000000000000f61b      0x153 c:/hightec/toolchains/tricore/v4.9.3.0-infineon-1.0/bin/../lib/gcc/tricore/4.9.4/../../../../tricore/lib/tc161\libc.a(lib_a-s_fpclassify.o)
 .debug_line    0x000000000000f76e       0xd3 c:/hightec/toolchains/tricore/v4.9.3.0-infineon-1.0/bin/../lib/gcc/tricore/4.9.4/../../../../tricore/lib/tc161\libc.a(lib_a-strcmp.o)
 .debug_line    0x000000000000f841      0x554 c:/hightec/toolchains/tricore/v4.9.3.0-infineon-1.0/bin/../lib/gcc/tricore/4.9.4/../../../../tricore/lib/tc161\libc.a(lib_a-svfiprintf.o)
 .debug_line    0x000000000000fd95      0x165 c:/hightec/toolchains/tricore/v4.9.3.0-infineon-1.0/bin/../lib/gcc/tricore/4.9.4/../../../../tricore/lib/tc161\libc.a(lib_a-callocr.o)
 .debug_line    0x000000000000fefa      0x12f c:/hightec/toolchains/tricore/v4.9.3.0-infineon-1.0/bin/../lib/gcc/tricore/4.9.4/../../../../tricore/lib/tc161\libc.a(lib_a-memmove.o)
 .debug_line    0x0000000000010029      0x124 c:/hightec/toolchains/tricore/v4.9.3.0-infineon-1.0/bin/../lib/gcc/tricore/4.9.4/../../../../tricore/lib/tc161\libc.a(lib_a-memset.o)
 .debug_line    0x000000000001014d      0x23f c:/hightec/toolchains/tricore/v4.9.3.0-infineon-1.0/bin/../lib/gcc/tricore/4.9.4/../../../../tricore/lib/tc161\libc.a(lib_a-reallocr.o)
 .debug_line    0x000000000001038c       0x74 c:/hightec/toolchains/tricore/v4.9.3.0-infineon-1.0/bin/../lib/gcc/tricore/4.9.4/../../../../tricore/lib/tc161\libos.a(libos_exit.o)
 .debug_line    0x0000000000010400      0x137 c:/hightec/toolchains/tricore/v4.9.3.0-infineon-1.0/bin/../lib/gcc/tricore/4.9.4/../../../../tricore/lib/tc161\libos.a(libos_sbrk.o)
 .debug_line    0x0000000000010537      0x1d5 c:/hightec/toolchains/tricore/v4.9.3.0-infineon-1.0/bin/../lib/gcc/tricore/4.9.4/../../../../tricore/lib/tc161\libos.a(libos.o)
 .debug_line    0x000000000001070c       0x71 c:/hightec/toolchains/tricore/v4.9.3.0-infineon-1.0/bin/../lib/gcc/tricore/4.9.4/../../../../tricore/lib/tc161\libos.a(libos_abort.o)
 .debug_line    0x000000000001077d      0x1b6 c:/hightec/toolchains/tricore/v4.9.3.0-infineon-1.0/bin/../lib/gcc/tricore/4.9.4/../../../../tricore/lib/tc161\libm.a(lib_a-s_atan.o)
 .debug_line    0x0000000000010933      0x175 c:/hightec/toolchains/tricore/v4.9.3.0-infineon-1.0/bin/../lib/gcc/tricore/4.9.4/../../../../tricore/lib/tc161\libm.a(lib_a-s_fabs.o)
 .debug_line    0x0000000000010aa8       0xc9 c:/hightec/toolchains/tricore/v4.9.3.0-infineon-1.0/bin/../lib/gcc/tricore/4.9.4/../../../../tricore/lib/tc161\libm.a(lib_a-wf_sincos.o)
 .debug_line    0x0000000000010b71      0x18a c:/hightec/toolchains/tricore/v4.9.3.0-infineon-1.0/bin/../lib/gcc/tricore/4.9.4/../../../../tricore/lib/tc161\libm.a(lib_a-sf_cos.o)
 .debug_line    0x0000000000010cfb      0x18a c:/hightec/toolchains/tricore/v4.9.3.0-infineon-1.0/bin/../lib/gcc/tricore/4.9.4/../../../../tricore/lib/tc161\libm.a(lib_a-sf_sin.o)
 .debug_line    0x0000000000010e85      0x1ed c:/hightec/toolchains/tricore/v4.9.3.0-infineon-1.0/bin/../lib/gcc/tricore/4.9.4/../../../../tricore/lib/tc161\libm.a(lib_a-ef_rem_pio2.o)
 .debug_line    0x0000000000011072      0x12f c:/hightec/toolchains/tricore/v4.9.3.0-infineon-1.0/bin/../lib/gcc/tricore/4.9.4/../../../../tricore/lib/tc161\libm.a(lib_a-kf_cos.o)
 .debug_line    0x00000000000111a1      0x2f2 c:/hightec/toolchains/tricore/v4.9.3.0-infineon-1.0/bin/../lib/gcc/tricore/4.9.4/../../../../tricore/lib/tc161\libm.a(lib_a-kf_rem_pio2.o)
 .debug_line    0x0000000000011493       0xe6 c:/hightec/toolchains/tricore/v4.9.3.0-infineon-1.0/bin/../lib/gcc/tricore/4.9.4/../../../../tricore/lib/tc161\libm.a(lib_a-kf_sin.o)
 .debug_line    0x0000000000011579      0x12c c:/hightec/toolchains/tricore/v4.9.3.0-infineon-1.0/bin/../lib/gcc/tricore/4.9.4/../../../../tricore/lib/tc161\libm.a(lib_a-sf_fabs.o)
 .debug_line    0x00000000000116a5      0x197 c:/hightec/toolchains/tricore/v4.9.3.0-infineon-1.0/bin/../lib/gcc/tricore/4.9.4/../../../../tricore/lib/tc161\libm.a(lib_a-sf_floor.o)
 .debug_line    0x000000000001183c      0x162 c:/hightec/toolchains/tricore/v4.9.3.0-infineon-1.0/bin/../lib/gcc/tricore/4.9.4/../../../../tricore/lib/tc161\libm.a(lib_a-sf_scalbn.o)
 .debug_line    0x000000000001199e      0x132 c:/hightec/toolchains/tricore/v4.9.3.0-infineon-1.0/bin/../lib/gcc/tricore/4.9.4/../../../../tricore/lib/tc161\libm.a(lib_a-sf_copysign.o)
 .debug_line    0x0000000000011ad0       0x78 c:/hightec/toolchains/tricore/v4.9.3.0-infineon-1.0/bin/../lib/gcc/tricore/4.9.4/tc161\libgcc.a(_eq_df.o)
 .debug_line    0x0000000000011b48       0x78 c:/hightec/toolchains/tricore/v4.9.3.0-infineon-1.0/bin/../lib/gcc/tricore/4.9.4/tc161\libgcc.a(_ne_df.o)
 .debug_line    0x0000000000011bc0       0xd7 c:/hightec/toolchains/tricore/v4.9.3.0-infineon-1.0/bin/../lib/gcc/tricore/4.9.4/tc161\libgcc.a(umoddi3.o)

.debug_frame    memory region -> *default*
                0x0000000000000000     0x2ca0
 *(.debug_frame)
 .debug_frame   0x0000000000000000       0x38 obj/asw.c.o
 .debug_frame   0x0000000000000038      0x110 obj/bsw.c.o
 .debug_frame   0x0000000000000148       0x90 obj/hall_Driver.c.o
 .debug_frame   0x00000000000001d8       0x40 obj/illd/Libraries/iLLD/TC27D/Tricore/Gtm/Std/IfxGtm.c.o
 .debug_frame   0x0000000000000218       0xe0 obj/illd/Libraries/iLLD/TC27D/Tricore/Gtm/Std/IfxGtm_Cmu.c.o
 .debug_frame   0x00000000000002f8       0x20 obj/illd/Libraries/iLLD/TC27D/Tricore/Gtm/Std/IfxGtm_Dpll.c.o
 .debug_frame   0x0000000000000318      0x308 obj/illd/Libraries/iLLD/TC27D/Tricore/Gtm/Std/IfxGtm_Tom.c.o
 .debug_frame   0x0000000000000620       0x50 obj/illd/Libraries/iLLD/TC27D/Tricore/Gtm/Tom/Pwm/IfxGtm_Tom_Pwm.c.o
 .debug_frame   0x0000000000000670      0x190 obj/illd/Libraries/iLLD/TC27D/Tricore/Vadc/std/IfxVadc.c.o
 .debug_frame   0x0000000000000800       0x40 obj/illd/Libraries/iLLD/TC27D/Tricore/_PinMap/IfxGtm_PinMap.c.o
 .debug_frame   0x0000000000000840       0x30 obj/illd/src/Bsp.c.o
 .debug_frame   0x0000000000000870       0x28 obj/illd/src/CompilerGnuc.c.o
 .debug_frame   0x0000000000000898      0x178 obj/illd/src/IfxAsclin.c.o
 .debug_frame   0x0000000000000a10      0x1b8 obj/illd/src/IfxAsclin_Asc.c.o
 .debug_frame   0x0000000000000bc8       0xf0 obj/illd/src/IfxCpu.c.o
 .debug_frame   0x0000000000000cb8       0x30 obj/illd/src/IfxCpu_Irq.c.o
 .debug_frame   0x0000000000000ce8       0xf8 obj/illd/src/IfxPort.c.o
 .debug_frame   0x0000000000000de0      0x1f0 obj/illd/src/IfxScuCcu.c.o
 .debug_frame   0x0000000000000fd0      0x1a0 obj/illd/src/IfxScuEru.c.o
 .debug_frame   0x0000000000001170      0x160 obj/illd/src/IfxScuWdt.c.o
 .debug_frame   0x00000000000012d0       0x28 obj/illd/src/IfxStdIf_DPipe.c.o
 .debug_frame   0x00000000000012f8       0xe0 obj/illd/src/IfxStm.c.o
 .debug_frame   0x00000000000013d8       0xf8 obj/illd/src/IfxVadc_Adc.c.o
 .debug_frame   0x00000000000014d0       0x80 obj/illd/src/Ifx_CircularBuffer.c.o
 .debug_frame   0x0000000000001550       0xa0 obj/illd/src/Ifx_Fifo.c.o
 .debug_frame   0x00000000000015f0       0x98 obj/motor_driver.c.o
 .debug_frame   0x0000000000001688       0xf0 obj/shiparker_App.c.o
 .debug_frame   0x0000000000001778       0x58 obj/steering_Pid.c.o
 .debug_frame   0x00000000000017d0       0xc0 obj/uart_Driver.c.o
 .debug_frame   0x0000000000001890       0x60 obj/ultrasonic_Driver.c.o
 .debug_frame   0x00000000000018f0       0x30 C:\Users\USER\Desktop\AUTODR~1\TC275\erika\lib\libee.a(ee_tc_cstart.c.o)
 .debug_frame   0x0000000000001920       0xe8 C:\Users\USER\Desktop\AUTODR~1\TC275\erika\lib\libee.a(ee_tc_system.c.o)
 .debug_frame   0x0000000000001a08       0x28 C:\Users\USER\Desktop\AUTODR~1\TC275\erika\lib\libee.a(ee_tc_intvec.c.o)
 .debug_frame   0x0000000000001a30      0x2f8 C:\Users\USER\Desktop\AUTODR~1\TC275\erika\lib\libee.a(ee_oo_api_osek.c.o)
 .debug_frame   0x0000000000001d28       0x70 C:\Users\USER\Desktop\AUTODR~1\TC275\erika\lib\libee.a(ee_oo_sched_entry_points.c.o)
 .debug_frame   0x0000000000001d98       0x70 C:\Users\USER\Desktop\AUTODR~1\TC275\erika\lib\libee.a(ee_oo_scheduler.c.o)
 .debug_frame   0x0000000000001e08       0x70 C:\Users\USER\Desktop\AUTODR~1\TC275\erika\lib\libee.a(ee_oo_kernel.c.o)
 .debug_frame   0x0000000000001e78       0xa0 C:\Users\USER\Desktop\AUTODR~1\TC275\erika\lib\libee.a(ee_oo_sched_partitioned.c.o)
 .debug_frame   0x0000000000001f18       0x70 C:\Users\USER\Desktop\AUTODR~1\TC275\erika\lib\libee.a(ee_oo_counter.c.o)
 .debug_frame   0x0000000000001f88       0x70 C:\Users\USER\Desktop\AUTODR~1\TC275\erika\lib\libee.a(ee_oo_alarm.c.o)
 .debug_frame   0x0000000000001ff8       0x58 C:\Users\USER\Desktop\AUTODR~1\TC275\erika\lib\libee.a(ee_std_change_context.c.o)
 .debug_frame   0x0000000000002050       0x28 C:\Users\USER\Desktop\AUTODR~1\TC275\erika\lib\libee.a(ee_tc_hal.c.o)
 .debug_frame   0x0000000000002078       0x88 C:\Users\USER\Desktop\AUTODR~1\TC275\erika\lib\libee.a(ee_tc_ctx.c.o)
 .debug_frame   0x0000000000002100       0x20 c:/hightec/toolchains/tricore/v4.9.3.0-infineon-1.0/bin/../lib/gcc/tricore/4.9.4/tc161\libgcc.a(_fixunsdfsi.o)
 .debug_frame   0x0000000000002120       0x20 c:/hightec/toolchains/tricore/v4.9.3.0-infineon-1.0/bin/../lib/gcc/tricore/4.9.4/tc161\libgcc.a(_floatundidf.o)
 .debug_frame   0x0000000000002140       0x28 c:/hightec/toolchains/tricore/v4.9.3.0-infineon-1.0/bin/../lib/gcc/tricore/4.9.4/tc161\libgcc.a(_sf_to_df.o)
 .debug_frame   0x0000000000002168       0x50 c:/hightec/toolchains/tricore/v4.9.3.0-infineon-1.0/bin/../lib/gcc/tricore/4.9.4/tc161\libgcc.a(_addsub_df.o)
 .debug_frame   0x00000000000021b8       0x28 c:/hightec/toolchains/tricore/v4.9.3.0-infineon-1.0/bin/../lib/gcc/tricore/4.9.4/tc161\libgcc.a(_mul_df.o)
 .debug_frame   0x00000000000021e0       0x28 c:/hightec/toolchains/tricore/v4.9.3.0-infineon-1.0/bin/../lib/gcc/tricore/4.9.4/tc161\libgcc.a(_div_df.o)
 .debug_frame   0x0000000000002208       0x28 c:/hightec/toolchains/tricore/v4.9.3.0-infineon-1.0/bin/../lib/gcc/tricore/4.9.4/tc161\libgcc.a(_gt_df.o)
 .debug_frame   0x0000000000002230       0x28 c:/hightec/toolchains/tricore/v4.9.3.0-infineon-1.0/bin/../lib/gcc/tricore/4.9.4/tc161\libgcc.a(_ge_df.o)
 .debug_frame   0x0000000000002258       0x28 c:/hightec/toolchains/tricore/v4.9.3.0-infineon-1.0/bin/../lib/gcc/tricore/4.9.4/tc161\libgcc.a(_lt_df.o)
 .debug_frame   0x0000000000002280       0x28 c:/hightec/toolchains/tricore/v4.9.3.0-infineon-1.0/bin/../lib/gcc/tricore/4.9.4/tc161\libgcc.a(_si_to_df.o)
 .debug_frame   0x00000000000022a8       0x28 c:/hightec/toolchains/tricore/v4.9.3.0-infineon-1.0/bin/../lib/gcc/tricore/4.9.4/tc161\libgcc.a(_df_to_si.o)
 .debug_frame   0x00000000000022d0       0x28 c:/hightec/toolchains/tricore/v4.9.3.0-infineon-1.0/bin/../lib/gcc/tricore/4.9.4/tc161\libgcc.a(_make_df.o)
 .debug_frame   0x00000000000022f8       0x28 c:/hightec/toolchains/tricore/v4.9.3.0-infineon-1.0/bin/../lib/gcc/tricore/4.9.4/tc161\libgcc.a(_df_to_sf.o)
 .debug_frame   0x0000000000002320       0x28 c:/hightec/toolchains/tricore/v4.9.3.0-infineon-1.0/bin/../lib/gcc/tricore/4.9.4/tc161\libgcc.a(_usi_to_df.o)
 .debug_frame   0x0000000000002348       0x20 c:/hightec/toolchains/tricore/v4.9.3.0-infineon-1.0/bin/../lib/gcc/tricore/4.9.4/tc161\libgcc.a(udivdi3.o)
 .debug_frame   0x0000000000002368       0x20 c:/hightec/toolchains/tricore/v4.9.3.0-infineon-1.0/bin/../lib/gcc/tricore/4.9.4/tc161\libgcc.a(_unpack_sf.o)
 .debug_frame   0x0000000000002388       0x28 c:/hightec/toolchains/tricore/v4.9.3.0-infineon-1.0/bin/../lib/gcc/tricore/4.9.4/tc161\libgcc.a(_make_sf.o)
 .debug_frame   0x00000000000023b0       0x20 c:/hightec/toolchains/tricore/v4.9.3.0-infineon-1.0/bin/../lib/gcc/tricore/4.9.4/tc161\libgcc.a(_pack_df.o)
 .debug_frame   0x00000000000023d0       0x20 c:/hightec/toolchains/tricore/v4.9.3.0-infineon-1.0/bin/../lib/gcc/tricore/4.9.4/tc161\libgcc.a(_unpack_df.o)
 .debug_frame   0x00000000000023f0       0x20 c:/hightec/toolchains/tricore/v4.9.3.0-infineon-1.0/bin/../lib/gcc/tricore/4.9.4/tc161\libgcc.a(_fpcmp_parts_df.o)
 .debug_frame   0x0000000000002410       0x20 c:/hightec/toolchains/tricore/v4.9.3.0-infineon-1.0/bin/../lib/gcc/tricore/4.9.4/tc161\libgcc.a(udiv6432.o)
 .debug_frame   0x0000000000002430       0x20 c:/hightec/toolchains/tricore/v4.9.3.0-infineon-1.0/bin/../lib/gcc/tricore/4.9.4/tc161\libgcc.a(_pack_sf.o)
 .debug_frame   0x0000000000002450       0x30 c:/hightec/toolchains/tricore/v4.9.3.0-infineon-1.0/bin/../lib/gcc/tricore/4.9.4/../../../../tricore/lib/tc161\libc.a(lib_a-malloc.o)
 .debug_frame   0x0000000000002480       0x20 c:/hightec/toolchains/tricore/v4.9.3.0-infineon-1.0/bin/../lib/gcc/tricore/4.9.4/../../../../tricore/lib/tc161\libc.a(lib_a-mallocr.o)
 .debug_frame   0x00000000000024a0       0x30 c:/hightec/toolchains/tricore/v4.9.3.0-infineon-1.0/bin/../lib/gcc/tricore/4.9.4/../../../../tricore/lib/tc161\libc.a(lib_a-mlock.o)
 .debug_frame   0x00000000000024d0       0x20 c:/hightec/toolchains/tricore/v4.9.3.0-infineon-1.0/bin/../lib/gcc/tricore/4.9.4/../../../../tricore/lib/tc161\libc.a(lib_a-sbrkr.o)
 .debug_frame   0x00000000000024f0       0x20 c:/hightec/toolchains/tricore/v4.9.3.0-infineon-1.0/bin/../lib/gcc/tricore/4.9.4/../../../../tricore/lib/tc161\libc.a(lib_a-strlen.o)
 .debug_frame   0x0000000000002510       0x38 c:/hightec/toolchains/tricore/v4.9.3.0-infineon-1.0/bin/../lib/gcc/tricore/4.9.4/../../../../tricore/lib/tc161\libc.a(lib_a-vsnprintf.o)
 .debug_frame   0x0000000000002548       0x38 c:/hightec/toolchains/tricore/v4.9.3.0-infineon-1.0/bin/../lib/gcc/tricore/4.9.4/../../../../tricore/lib/tc161\libc.a(lib_a-vsprintf.o)
 .debug_frame   0x0000000000002580       0x30 c:/hightec/toolchains/tricore/v4.9.3.0-infineon-1.0/bin/../lib/gcc/tricore/4.9.4/../../../../tricore/lib/tc161\libc.a(lib_a-freer.o)
 .debug_frame   0x00000000000025b0       0x40 c:/hightec/toolchains/tricore/v4.9.3.0-infineon-1.0/bin/../lib/gcc/tricore/4.9.4/../../../../tricore/lib/tc161\libc.a(lib_a-reent.o)
 .debug_frame   0x00000000000025f0       0x28 c:/hightec/toolchains/tricore/v4.9.3.0-infineon-1.0/bin/../lib/gcc/tricore/4.9.4/../../../../tricore/lib/tc161\libc.a(lib_a-svfprintf.o)
 .debug_frame   0x0000000000002618       0x38 c:/hightec/toolchains/tricore/v4.9.3.0-infineon-1.0/bin/../lib/gcc/tricore/4.9.4/../../../../tricore/lib/tc161\libc.a(lib_a-dtoa.o)
 .debug_frame   0x0000000000002650       0x80 c:/hightec/toolchains/tricore/v4.9.3.0-infineon-1.0/bin/../lib/gcc/tricore/4.9.4/../../../../tricore/lib/tc161\libc.a(lib_a-locale.o)
 .debug_frame   0x00000000000026d0       0x20 c:/hightec/toolchains/tricore/v4.9.3.0-infineon-1.0/bin/../lib/gcc/tricore/4.9.4/../../../../tricore/lib/tc161\libc.a(lib_a-memchr.o)
 .debug_frame   0x00000000000026f0       0x20 c:/hightec/toolchains/tricore/v4.9.3.0-infineon-1.0/bin/../lib/gcc/tricore/4.9.4/../../../../tricore/lib/tc161\libc.a(lib_a-memcpy.o)
 .debug_frame   0x0000000000002710      0x150 c:/hightec/toolchains/tricore/v4.9.3.0-infineon-1.0/bin/../lib/gcc/tricore/4.9.4/../../../../tricore/lib/tc161\libc.a(lib_a-mprec.o)
 .debug_frame   0x0000000000002860       0x20 c:/hightec/toolchains/tricore/v4.9.3.0-infineon-1.0/bin/../lib/gcc/tricore/4.9.4/../../../../tricore/lib/tc161\libc.a(lib_a-s_fpclassify.o)
 .debug_frame   0x0000000000002880       0x20 c:/hightec/toolchains/tricore/v4.9.3.0-infineon-1.0/bin/../lib/gcc/tricore/4.9.4/../../../../tricore/lib/tc161\libc.a(lib_a-strcmp.o)
 .debug_frame   0x00000000000028a0       0x40 c:/hightec/toolchains/tricore/v4.9.3.0-infineon-1.0/bin/../lib/gcc/tricore/4.9.4/../../../../tricore/lib/tc161\libc.a(lib_a-svfiprintf.o)
 .debug_frame   0x00000000000028e0       0x20 c:/hightec/toolchains/tricore/v4.9.3.0-infineon-1.0/bin/../lib/gcc/tricore/4.9.4/../../../../tricore/lib/tc161\libc.a(lib_a-callocr.o)
 .debug_frame   0x0000000000002900       0x20 c:/hightec/toolchains/tricore/v4.9.3.0-infineon-1.0/bin/../lib/gcc/tricore/4.9.4/../../../../tricore/lib/tc161\libc.a(lib_a-memmove.o)
 .debug_frame   0x0000000000002920       0x20 c:/hightec/toolchains/tricore/v4.9.3.0-infineon-1.0/bin/../lib/gcc/tricore/4.9.4/../../../../tricore/lib/tc161\libc.a(lib_a-memset.o)
 .debug_frame   0x0000000000002940       0x20 c:/hightec/toolchains/tricore/v4.9.3.0-infineon-1.0/bin/../lib/gcc/tricore/4.9.4/../../../../tricore/lib/tc161\libc.a(lib_a-reallocr.o)
 .debug_frame   0x0000000000002960       0x20 c:/hightec/toolchains/tricore/v4.9.3.0-infineon-1.0/bin/../lib/gcc/tricore/4.9.4/../../../../tricore/lib/tc161\libos.a(libos_exit.o)
 .debug_frame   0x0000000000002980       0x20 c:/hightec/toolchains/tricore/v4.9.3.0-infineon-1.0/bin/../lib/gcc/tricore/4.9.4/../../../../tricore/lib/tc161\libos.a(libos_sbrk.o)
 .debug_frame   0x00000000000029a0       0xb0 c:/hightec/toolchains/tricore/v4.9.3.0-infineon-1.0/bin/../lib/gcc/tricore/4.9.4/../../../../tricore/lib/tc161\libos.a(libos.o)
 .debug_frame   0x0000000000002a50       0x20 c:/hightec/toolchains/tricore/v4.9.3.0-infineon-1.0/bin/../lib/gcc/tricore/4.9.4/../../../../tricore/lib/tc161\libos.a(libos_abort.o)
 .debug_frame   0x0000000000002a70       0x20 c:/hightec/toolchains/tricore/v4.9.3.0-infineon-1.0/bin/../lib/gcc/tricore/4.9.4/../../../../tricore/lib/tc161\libm.a(lib_a-s_atan.o)
 .debug_frame   0x0000000000002a90       0x20 c:/hightec/toolchains/tricore/v4.9.3.0-infineon-1.0/bin/../lib/gcc/tricore/4.9.4/../../../../tricore/lib/tc161\libm.a(lib_a-s_fabs.o)
 .debug_frame   0x0000000000002ab0       0x20 c:/hightec/toolchains/tricore/v4.9.3.0-infineon-1.0/bin/../lib/gcc/tricore/4.9.4/../../../../tricore/lib/tc161\libm.a(lib_a-wf_sincos.o)
 .debug_frame   0x0000000000002ad0       0x28 c:/hightec/toolchains/tricore/v4.9.3.0-infineon-1.0/bin/../lib/gcc/tricore/4.9.4/../../../../tricore/lib/tc161\libm.a(lib_a-sf_cos.o)
 .debug_frame   0x0000000000002af8       0x28 c:/hightec/toolchains/tricore/v4.9.3.0-infineon-1.0/bin/../lib/gcc/tricore/4.9.4/../../../../tricore/lib/tc161\libm.a(lib_a-sf_sin.o)
 .debug_frame   0x0000000000002b20       0x28 c:/hightec/toolchains/tricore/v4.9.3.0-infineon-1.0/bin/../lib/gcc/tricore/4.9.4/../../../../tricore/lib/tc161\libm.a(lib_a-ef_rem_pio2.o)
 .debug_frame   0x0000000000002b48       0x20 c:/hightec/toolchains/tricore/v4.9.3.0-infineon-1.0/bin/../lib/gcc/tricore/4.9.4/../../../../tricore/lib/tc161\libm.a(lib_a-kf_cos.o)
 .debug_frame   0x0000000000002b68       0x28 c:/hightec/toolchains/tricore/v4.9.3.0-infineon-1.0/bin/../lib/gcc/tricore/4.9.4/../../../../tricore/lib/tc161\libm.a(lib_a-kf_rem_pio2.o)
 .debug_frame   0x0000000000002b90       0x20 c:/hightec/toolchains/tricore/v4.9.3.0-infineon-1.0/bin/../lib/gcc/tricore/4.9.4/../../../../tricore/lib/tc161\libm.a(lib_a-kf_sin.o)
 .debug_frame   0x0000000000002bb0       0x20 c:/hightec/toolchains/tricore/v4.9.3.0-infineon-1.0/bin/../lib/gcc/tricore/4.9.4/../../../../tricore/lib/tc161\libm.a(lib_a-sf_fabs.o)
 .debug_frame   0x0000000000002bd0       0x20 c:/hightec/toolchains/tricore/v4.9.3.0-infineon-1.0/bin/../lib/gcc/tricore/4.9.4/../../../../tricore/lib/tc161\libm.a(lib_a-sf_floor.o)
 .debug_frame   0x0000000000002bf0       0x20 c:/hightec/toolchains/tricore/v4.9.3.0-infineon-1.0/bin/../lib/gcc/tricore/4.9.4/../../../../tricore/lib/tc161\libm.a(lib_a-sf_scalbn.o)
 .debug_frame   0x0000000000002c10       0x20 c:/hightec/toolchains/tricore/v4.9.3.0-infineon-1.0/bin/../lib/gcc/tricore/4.9.4/../../../../tricore/lib/tc161\libm.a(lib_a-sf_copysign.o)
 .debug_frame   0x0000000000002c30       0x28 c:/hightec/toolchains/tricore/v4.9.3.0-infineon-1.0/bin/../lib/gcc/tricore/4.9.4/tc161\libgcc.a(_eq_df.o)
 .debug_frame   0x0000000000002c58       0x28 c:/hightec/toolchains/tricore/v4.9.3.0-infineon-1.0/bin/../lib/gcc/tricore/4.9.4/tc161\libgcc.a(_ne_df.o)
 .debug_frame   0x0000000000002c80       0x20 c:/hightec/toolchains/tricore/v4.9.3.0-infineon-1.0/bin/../lib/gcc/tricore/4.9.4/tc161\libgcc.a(umoddi3.o)

.debug_str      memory region -> *default*
                0x0000000000000000     0x5f07
 *(.debug_str)
 .debug_str     0x0000000000000000       0x12 obj/asw.c.o
 .debug_str     0x0000000000000012      0x3b5 obj/bsw.c.o
 .debug_str     0x00000000000003c7       0x14 obj/ee_applcfg.c.o
 .debug_str     0x00000000000003db      0x1e7 obj/hall_Driver.c.o
 .debug_str     0x00000000000005c2      0x7c3 obj/illd/Libraries/iLLD/TC27D/Tricore/Gtm/Std/IfxGtm.c.o
 .debug_str     0x0000000000000d85      0x805 obj/illd/Libraries/iLLD/TC27D/Tricore/Gtm/Std/IfxGtm_Cmu.c.o
 .debug_str     0x000000000000158a      0x7c3 obj/illd/Libraries/iLLD/TC27D/Tricore/Gtm/Std/IfxGtm_Dpll.c.o
 .debug_str     0x0000000000001d4d      0x8f0 obj/illd/Libraries/iLLD/TC27D/Tricore/Gtm/Std/IfxGtm_Tom.c.o
 .debug_str     0x000000000000263d      0x84a obj/illd/Libraries/iLLD/TC27D/Tricore/Gtm/Tom/Pwm/IfxGtm_Tom_Pwm.c.o
 .debug_str     0x0000000000002e87      0x1b7 obj/illd/Libraries/iLLD/TC27D/Tricore/Vadc/std/IfxVadc.c.o
 .debug_str     0x000000000000303e        0x0 obj/illd/Libraries/iLLD/TC27D/Tricore/_Impl/IfxVadc_cfg.c.o
 .debug_str     0x000000000000303e      0x824 obj/illd/Libraries/iLLD/TC27D/Tricore/_PinMap/IfxGtm_PinMap.c.o
 .debug_str     0x0000000000003862       0x5d obj/illd/Libraries/iLLD/TC27D/Tricore/_PinMap/IfxPort_PinMap.c.o
 .debug_str     0x00000000000038bf       0x51 obj/illd/src/Bsp.c.o
 .debug_str     0x0000000000003910        0x0 obj/illd/src/CompilerGnuc.c.o
 .debug_str     0x0000000000003910      0x10d obj/illd/src/IfxAsclin.c.o
 .debug_str     0x0000000000003a1d      0x1ec obj/illd/src/IfxAsclin_Asc.c.o
 .debug_str     0x0000000000003c09       0xdb obj/illd/src/IfxAsclin_PinMap.c.o
 .debug_str     0x0000000000003ce4       0x88 obj/illd/src/IfxAsclin_cfg.c.o
 .debug_str     0x0000000000003d6c      0x1f9 obj/illd/src/IfxCpu.c.o
 .debug_str     0x0000000000003f65        0x0 obj/illd/src/IfxCpu_Irq.c.o
 .debug_str     0x0000000000003f65       0xc4 obj/illd/src/IfxCpu_cfg.c.o
 .debug_str     0x0000000000004029       0xa2 obj/illd/src/IfxPort.c.o
 .debug_str     0x00000000000040cb       0x5d obj/illd/src/IfxPort_cfg.c.o
 .debug_str     0x0000000000004128      0x21a obj/illd/src/IfxScuCcu.c.o
 .debug_str     0x0000000000004342      0x1aa obj/illd/src/IfxScuEru.c.o
 .debug_str     0x00000000000044ec      0x1c9 obj/illd/src/IfxScuWdt.c.o
 .debug_str     0x00000000000046b5      0x1cb obj/illd/src/IfxScu_PinMap.c.o
 .debug_str     0x0000000000004880        0x0 obj/illd/src/IfxScu_cfg.c.o
 .debug_str     0x0000000000004880        0x0 obj/illd/src/IfxSrc.c.o
 .debug_str     0x0000000000004880        0x0 obj/illd/src/IfxSrc_cfg.c.o
 .debug_str     0x0000000000004880        0x0 obj/illd/src/IfxStdIf_DPipe.c.o
 .debug_str     0x0000000000004880      0x13c obj/illd/src/IfxStm.c.o
 .debug_str     0x00000000000049bc       0x38 obj/illd/src/IfxStm_cfg.c.o
 .debug_str     0x00000000000049f4      0x36d obj/illd/src/IfxVadc_Adc.c.o
 .debug_str     0x0000000000004d61       0x12 obj/illd/src/Ifx_CircularBuffer.c.o
 .debug_str     0x0000000000004d73       0x90 obj/illd/src/Ifx_Fifo.c.o
 .debug_str     0x0000000000004e03      0x858 obj/motor_driver.c.o
 .debug_str     0x000000000000565b       0x5d obj/shiparker_App.c.o
 .debug_str     0x00000000000056b8       0x47 obj/steering_Pid.c.o
 .debug_str     0x00000000000056ff      0x116 obj/uart_Driver.c.o
 .debug_str     0x0000000000005815       0xc3 obj/ultrasonic_Driver.c.o
 .debug_str     0x00000000000058d8       0xb3 C:\Users\USER\Desktop\AUTODR~1\TC275\erika\lib\libee.a(ee_tc_cstart.c.o)
 .debug_str     0x000000000000598b       0x49 C:\Users\USER\Desktop\AUTODR~1\TC275\erika\lib\libee.a(ee_tc_system.c.o)
 .debug_str     0x00000000000059d4       0x14 C:\Users\USER\Desktop\AUTODR~1\TC275\erika\lib\libee.a(ee_tc_trapvec.c.o)
 .debug_str     0x00000000000059e8       0x14 C:\Users\USER\Desktop\AUTODR~1\TC275\erika\lib\libee.a(ee_tc_intvec.c.o)
 .debug_str     0x00000000000059fc       0xe4 C:\Users\USER\Desktop\AUTODR~1\TC275\erika\lib\libee.a(ee_oo_api_osek.c.o)
 .debug_str     0x0000000000005ae0       0x37 C:\Users\USER\Desktop\AUTODR~1\TC275\erika\lib\libee.a(ee_oo_sched_entry_points.c.o)
 .debug_str     0x0000000000005b17       0x3b C:\Users\USER\Desktop\AUTODR~1\TC275\erika\lib\libee.a(ee_oo_scheduler.c.o)
 .debug_str     0x0000000000005b52       0x1d C:\Users\USER\Desktop\AUTODR~1\TC275\erika\lib\libee.a(ee_oo_kernel.c.o)
 .debug_str     0x0000000000005b6f       0x78 C:\Users\USER\Desktop\AUTODR~1\TC275\erika\lib\libee.a(ee_oo_sched_partitioned.c.o)
 .debug_str     0x0000000000005be7       0x95 C:\Users\USER\Desktop\AUTODR~1\TC275\erika\lib\libee.a(ee_oo_counter.c.o)
 .debug_str     0x0000000000005c7c       0x61 C:\Users\USER\Desktop\AUTODR~1\TC275\erika\lib\libee.a(ee_oo_alarm.c.o)
 .debug_str     0x0000000000005cdd       0x1d C:\Users\USER\Desktop\AUTODR~1\TC275\erika\lib\libee.a(ee_std_change_context.c.o)
 .debug_str     0x0000000000005cfa       0x14 C:\Users\USER\Desktop\AUTODR~1\TC275\erika\lib\libee.a(ee_tc_hal.c.o)
 .debug_str     0x0000000000005d0e       0x41 C:\Users\USER\Desktop\AUTODR~1\TC275\erika\lib\libee.a(ee_tc_ctx.c.o)
 .debug_str     0x0000000000005d4f        0x0 c:/hightec/toolchains/tricore/v4.9.3.0-infineon-1.0/bin/../lib/gcc/tricore/4.9.4/tc161\libgcc.a(_fixunsdfsi.o)
 .debug_str     0x0000000000005d4f        0x0 c:/hightec/toolchains/tricore/v4.9.3.0-infineon-1.0/bin/../lib/gcc/tricore/4.9.4/tc161\libgcc.a(_floatundidf.o)
 .debug_str     0x0000000000005d4f        0x9 c:/hightec/toolchains/tricore/v4.9.3.0-infineon-1.0/bin/../lib/gcc/tricore/4.9.4/tc161\libgcc.a(_sf_to_df.o)
 .debug_str     0x0000000000005d58        0x9 c:/hightec/toolchains/tricore/v4.9.3.0-infineon-1.0/bin/../lib/gcc/tricore/4.9.4/tc161\libgcc.a(_addsub_df.o)
 .debug_str     0x0000000000005d61        0x9 c:/hightec/toolchains/tricore/v4.9.3.0-infineon-1.0/bin/../lib/gcc/tricore/4.9.4/tc161\libgcc.a(_mul_df.o)
 .debug_str     0x0000000000005d6a        0x9 c:/hightec/toolchains/tricore/v4.9.3.0-infineon-1.0/bin/../lib/gcc/tricore/4.9.4/tc161\libgcc.a(_div_df.o)
 .debug_str     0x0000000000005d73        0x9 c:/hightec/toolchains/tricore/v4.9.3.0-infineon-1.0/bin/../lib/gcc/tricore/4.9.4/tc161\libgcc.a(_gt_df.o)
 .debug_str     0x0000000000005d7c        0x9 c:/hightec/toolchains/tricore/v4.9.3.0-infineon-1.0/bin/../lib/gcc/tricore/4.9.4/tc161\libgcc.a(_ge_df.o)
 .debug_str     0x0000000000005d85        0x9 c:/hightec/toolchains/tricore/v4.9.3.0-infineon-1.0/bin/../lib/gcc/tricore/4.9.4/tc161\libgcc.a(_lt_df.o)
 .debug_str     0x0000000000005d8e        0x0 c:/hightec/toolchains/tricore/v4.9.3.0-infineon-1.0/bin/../lib/gcc/tricore/4.9.4/tc161\libgcc.a(_si_to_df.o)
 .debug_str     0x0000000000005d8e        0x9 c:/hightec/toolchains/tricore/v4.9.3.0-infineon-1.0/bin/../lib/gcc/tricore/4.9.4/tc161\libgcc.a(_df_to_si.o)
 .debug_str     0x0000000000005d97        0x0 c:/hightec/toolchains/tricore/v4.9.3.0-infineon-1.0/bin/../lib/gcc/tricore/4.9.4/tc161\libgcc.a(_make_df.o)
 .debug_str     0x0000000000005d97        0x9 c:/hightec/toolchains/tricore/v4.9.3.0-infineon-1.0/bin/../lib/gcc/tricore/4.9.4/tc161\libgcc.a(_df_to_sf.o)
 .debug_str     0x0000000000005da0        0x0 c:/hightec/toolchains/tricore/v4.9.3.0-infineon-1.0/bin/../lib/gcc/tricore/4.9.4/tc161\libgcc.a(_thenan_df.o)
 .debug_str     0x0000000000005da0        0x0 c:/hightec/toolchains/tricore/v4.9.3.0-infineon-1.0/bin/../lib/gcc/tricore/4.9.4/tc161\libgcc.a(_usi_to_df.o)
 .debug_str     0x0000000000005da0        0x0 c:/hightec/toolchains/tricore/v4.9.3.0-infineon-1.0/bin/../lib/gcc/tricore/4.9.4/tc161\libgcc.a(udivdi3.o)
 .debug_str     0x0000000000005da0        0x9 c:/hightec/toolchains/tricore/v4.9.3.0-infineon-1.0/bin/../lib/gcc/tricore/4.9.4/tc161\libgcc.a(_unpack_sf.o)
 .debug_str     0x0000000000005da9        0x0 c:/hightec/toolchains/tricore/v4.9.3.0-infineon-1.0/bin/../lib/gcc/tricore/4.9.4/tc161\libgcc.a(_make_sf.o)
 .debug_str     0x0000000000005da9        0x9 c:/hightec/toolchains/tricore/v4.9.3.0-infineon-1.0/bin/../lib/gcc/tricore/4.9.4/tc161\libgcc.a(_pack_df.o)
 .debug_str     0x0000000000005db2        0x9 c:/hightec/toolchains/tricore/v4.9.3.0-infineon-1.0/bin/../lib/gcc/tricore/4.9.4/tc161\libgcc.a(_unpack_df.o)
 .debug_str     0x0000000000005dbb        0x0 c:/hightec/toolchains/tricore/v4.9.3.0-infineon-1.0/bin/../lib/gcc/tricore/4.9.4/tc161\libgcc.a(_fpcmp_parts_df.o)
 .debug_str     0x0000000000005dbb        0x0 c:/hightec/toolchains/tricore/v4.9.3.0-infineon-1.0/bin/../lib/gcc/tricore/4.9.4/tc161\libgcc.a(udiv6432.o)
 .debug_str     0x0000000000005dbb        0x9 c:/hightec/toolchains/tricore/v4.9.3.0-infineon-1.0/bin/../lib/gcc/tricore/4.9.4/tc161\libgcc.a(_pack_sf.o)
 .debug_str     0x0000000000005dc4        0xe c:/hightec/toolchains/tricore/v4.9.3.0-infineon-1.0/bin/../lib/gcc/tricore/4.9.4/../../../../tricore/lib/tc161\libc.a(lib_a-malloc.o)
 .debug_str     0x0000000000005dd2       0x18 c:/hightec/toolchains/tricore/v4.9.3.0-infineon-1.0/bin/../lib/gcc/tricore/4.9.4/../../../../tricore/lib/tc161\libc.a(lib_a-mallocr.o)
 .debug_str     0x0000000000005dea        0xe c:/hightec/toolchains/tricore/v4.9.3.0-infineon-1.0/bin/../lib/gcc/tricore/4.9.4/../../../../tricore/lib/tc161\libc.a(lib_a-mlock.o)
 .debug_str     0x0000000000005df8        0xe c:/hightec/toolchains/tricore/v4.9.3.0-infineon-1.0/bin/../lib/gcc/tricore/4.9.4/../../../../tricore/lib/tc161\libc.a(lib_a-sbrkr.o)
 .debug_str     0x0000000000005e06        0x0 c:/hightec/toolchains/tricore/v4.9.3.0-infineon-1.0/bin/../lib/gcc/tricore/4.9.4/../../../../tricore/lib/tc161\libc.a(lib_a-strlen.o)
 .debug_str     0x0000000000005e06       0x1b c:/hightec/toolchains/tricore/v4.9.3.0-infineon-1.0/bin/../lib/gcc/tricore/4.9.4/../../../../tricore/lib/tc161\libc.a(lib_a-vsnprintf.o)
 .debug_str     0x0000000000005e21       0x1b c:/hightec/toolchains/tricore/v4.9.3.0-infineon-1.0/bin/../lib/gcc/tricore/4.9.4/../../../../tricore/lib/tc161\libc.a(lib_a-vsprintf.o)
 .debug_str     0x0000000000005e3c       0x18 c:/hightec/toolchains/tricore/v4.9.3.0-infineon-1.0/bin/../lib/gcc/tricore/4.9.4/../../../../tricore/lib/tc161\libc.a(lib_a-freer.o)
 .debug_str     0x0000000000005e54        0xe c:/hightec/toolchains/tricore/v4.9.3.0-infineon-1.0/bin/../lib/gcc/tricore/4.9.4/../../../../tricore/lib/tc161\libc.a(lib_a-impure.o)
 .debug_str     0x0000000000005e62        0xe c:/hightec/toolchains/tricore/v4.9.3.0-infineon-1.0/bin/../lib/gcc/tricore/4.9.4/../../../../tricore/lib/tc161\libc.a(lib_a-reent.o)
 .debug_str     0x0000000000005e70       0x1c c:/hightec/toolchains/tricore/v4.9.3.0-infineon-1.0/bin/../lib/gcc/tricore/4.9.4/../../../../tricore/lib/tc161\libc.a(lib_a-svfprintf.o)
 .debug_str     0x0000000000005e8c        0xe c:/hightec/toolchains/tricore/v4.9.3.0-infineon-1.0/bin/../lib/gcc/tricore/4.9.4/../../../../tricore/lib/tc161\libc.a(lib_a-dtoa.o)
 .debug_str     0x0000000000005e9a       0x17 c:/hightec/toolchains/tricore/v4.9.3.0-infineon-1.0/bin/../lib/gcc/tricore/4.9.4/../../../../tricore/lib/tc161\libc.a(lib_a-locale.o)
 .debug_str     0x0000000000005eb1        0x0 c:/hightec/toolchains/tricore/v4.9.3.0-infineon-1.0/bin/../lib/gcc/tricore/4.9.4/../../../../tricore/lib/tc161\libc.a(lib_a-memchr.o)
 .debug_str     0x0000000000005eb1        0x0 c:/hightec/toolchains/tricore/v4.9.3.0-infineon-1.0/bin/../lib/gcc/tricore/4.9.4/../../../../tricore/lib/tc161\libc.a(lib_a-memcpy.o)
 .debug_str     0x0000000000005eb1        0xe c:/hightec/toolchains/tricore/v4.9.3.0-infineon-1.0/bin/../lib/gcc/tricore/4.9.4/../../../../tricore/lib/tc161\libc.a(lib_a-mprec.o)
 .debug_str     0x0000000000005ebf        0x0 c:/hightec/toolchains/tricore/v4.9.3.0-infineon-1.0/bin/../lib/gcc/tricore/4.9.4/../../../../tricore/lib/tc161\libc.a(lib_a-s_fpclassify.o)
 .debug_str     0x0000000000005ebf        0x0 c:/hightec/toolchains/tricore/v4.9.3.0-infineon-1.0/bin/../lib/gcc/tricore/4.9.4/../../../../tricore/lib/tc161\libc.a(lib_a-strcmp.o)
 .debug_str     0x0000000000005ebf        0xe c:/hightec/toolchains/tricore/v4.9.3.0-infineon-1.0/bin/../lib/gcc/tricore/4.9.4/../../../../tricore/lib/tc161\libc.a(lib_a-svfiprintf.o)
 .debug_str     0x0000000000005ecd        0xe c:/hightec/toolchains/tricore/v4.9.3.0-infineon-1.0/bin/../lib/gcc/tricore/4.9.4/../../../../tricore/lib/tc161\libc.a(lib_a-callocr.o)
 .debug_str     0x0000000000005edb        0x0 c:/hightec/toolchains/tricore/v4.9.3.0-infineon-1.0/bin/../lib/gcc/tricore/4.9.4/../../../../tricore/lib/tc161\libc.a(lib_a-memmove.o)
 .debug_str     0x0000000000005edb        0x0 c:/hightec/toolchains/tricore/v4.9.3.0-infineon-1.0/bin/../lib/gcc/tricore/4.9.4/../../../../tricore/lib/tc161\libc.a(lib_a-memset.o)
 .debug_str     0x0000000000005edb       0x1a c:/hightec/toolchains/tricore/v4.9.3.0-infineon-1.0/bin/../lib/gcc/tricore/4.9.4/../../../../tricore/lib/tc161\libc.a(lib_a-reallocr.o)
 .debug_str     0x0000000000005ef5        0x0 c:/hightec/toolchains/tricore/v4.9.3.0-infineon-1.0/bin/../lib/gcc/tricore/4.9.4/../../../../tricore/lib/tc161\libos.a(libos_exit.o)
 .debug_str     0x0000000000005ef5        0x0 c:/hightec/toolchains/tricore/v4.9.3.0-infineon-1.0/bin/../lib/gcc/tricore/4.9.4/../../../../tricore/lib/tc161\libos.a(libos_sbrk.o)
 .debug_str     0x0000000000005ef5        0x0 c:/hightec/toolchains/tricore/v4.9.3.0-infineon-1.0/bin/../lib/gcc/tricore/4.9.4/../../../../tricore/lib/tc161\libos.a(libos.o)
 .debug_str     0x0000000000005ef5        0x0 c:/hightec/toolchains/tricore/v4.9.3.0-infineon-1.0/bin/../lib/gcc/tricore/4.9.4/../../../../tricore/lib/tc161\libos.a(libos_abort.o)
 .debug_str     0x0000000000005ef5        0x0 c:/hightec/toolchains/tricore/v4.9.3.0-infineon-1.0/bin/../lib/gcc/tricore/4.9.4/../../../../tricore/lib/tc161\libm.a(lib_a-s_atan.o)
 .debug_str     0x0000000000005ef5        0x0 c:/hightec/toolchains/tricore/v4.9.3.0-infineon-1.0/bin/../lib/gcc/tricore/4.9.4/../../../../tricore/lib/tc161\libm.a(lib_a-s_fabs.o)
 .debug_str     0x0000000000005ef5        0x0 c:/hightec/toolchains/tricore/v4.9.3.0-infineon-1.0/bin/../lib/gcc/tricore/4.9.4/../../../../tricore/lib/tc161\libm.a(lib_a-wf_sincos.o)
 .debug_str     0x0000000000005ef5        0x0 c:/hightec/toolchains/tricore/v4.9.3.0-infineon-1.0/bin/../lib/gcc/tricore/4.9.4/../../../../tricore/lib/tc161\libm.a(lib_a-sf_cos.o)
 .debug_str     0x0000000000005ef5        0x0 c:/hightec/toolchains/tricore/v4.9.3.0-infineon-1.0/bin/../lib/gcc/tricore/4.9.4/../../../../tricore/lib/tc161\libm.a(lib_a-sf_sin.o)
 .debug_str     0x0000000000005ef5        0x0 c:/hightec/toolchains/tricore/v4.9.3.0-infineon-1.0/bin/../lib/gcc/tricore/4.9.4/../../../../tricore/lib/tc161\libm.a(lib_a-ef_rem_pio2.o)
 .debug_str     0x0000000000005ef5        0x0 c:/hightec/toolchains/tricore/v4.9.3.0-infineon-1.0/bin/../lib/gcc/tricore/4.9.4/../../../../tricore/lib/tc161\libm.a(lib_a-kf_cos.o)
 .debug_str     0x0000000000005ef5        0x0 c:/hightec/toolchains/tricore/v4.9.3.0-infineon-1.0/bin/../lib/gcc/tricore/4.9.4/../../../../tricore/lib/tc161\libm.a(lib_a-kf_rem_pio2.o)
 .debug_str     0x0000000000005ef5        0x0 c:/hightec/toolchains/tricore/v4.9.3.0-infineon-1.0/bin/../lib/gcc/tricore/4.9.4/../../../../tricore/lib/tc161\libm.a(lib_a-kf_sin.o)
 .debug_str     0x0000000000005ef5        0x0 c:/hightec/toolchains/tricore/v4.9.3.0-infineon-1.0/bin/../lib/gcc/tricore/4.9.4/../../../../tricore/lib/tc161\libm.a(lib_a-sf_fabs.o)
 .debug_str     0x0000000000005ef5        0x0 c:/hightec/toolchains/tricore/v4.9.3.0-infineon-1.0/bin/../lib/gcc/tricore/4.9.4/../../../../tricore/lib/tc161\libm.a(lib_a-sf_floor.o)
 .debug_str     0x0000000000005ef5        0x0 c:/hightec/toolchains/tricore/v4.9.3.0-infineon-1.0/bin/../lib/gcc/tricore/4.9.4/../../../../tricore/lib/tc161\libm.a(lib_a-sf_scalbn.o)
 .debug_str     0x0000000000005ef5        0x0 c:/hightec/toolchains/tricore/v4.9.3.0-infineon-1.0/bin/../lib/gcc/tricore/4.9.4/../../../../tricore/lib/tc161\libm.a(lib_a-sf_copysign.o)
 .debug_str     0x0000000000005ef5        0x9 c:/hightec/toolchains/tricore/v4.9.3.0-infineon-1.0/bin/../lib/gcc/tricore/4.9.4/tc161\libgcc.a(_eq_df.o)
 .debug_str     0x0000000000005efe        0x9 c:/hightec/toolchains/tricore/v4.9.3.0-infineon-1.0/bin/../lib/gcc/tricore/4.9.4/tc161\libgcc.a(_ne_df.o)
 .debug_str     0x0000000000005f07        0x0 c:/hightec/toolchains/tricore/v4.9.3.0-infineon-1.0/bin/../lib/gcc/tricore/4.9.4/tc161\libgcc.a(umoddi3.o)

.debug_loc      memory region -> *default*
                0x0000000000000000    0x19307
 *(.debug_loc)
 .debug_loc     0x0000000000000000      0x2c5 obj/bsw.c.o
 .debug_loc     0x00000000000002c5       0xab obj/hall_Driver.c.o
 .debug_loc     0x0000000000000370       0x78 obj/illd/Libraries/iLLD/TC27D/Tricore/Gtm/Std/IfxGtm.c.o
 .debug_loc     0x00000000000003e8      0x819 obj/illd/Libraries/iLLD/TC27D/Tricore/Gtm/Std/IfxGtm_Cmu.c.o
 .debug_loc     0x0000000000000c01      0xcc4 obj/illd/Libraries/iLLD/TC27D/Tricore/Gtm/Std/IfxGtm_Tom.c.o
 .debug_loc     0x00000000000018c5      0x1a4 obj/illd/Libraries/iLLD/TC27D/Tricore/Gtm/Tom/Pwm/IfxGtm_Tom_Pwm.c.o
 .debug_loc     0x0000000000001a69      0xb3c obj/illd/Libraries/iLLD/TC27D/Tricore/Vadc/std/IfxVadc.c.o
 .debug_loc     0x00000000000025a5      0x507 obj/illd/Libraries/iLLD/TC27D/Tricore/_PinMap/IfxGtm_PinMap.c.o
 .debug_loc     0x0000000000002aac      0x110 obj/illd/src/Bsp.c.o
 .debug_loc     0x0000000000002bbc       0x94 obj/illd/src/CompilerGnuc.c.o
 .debug_loc     0x0000000000002c50      0x993 obj/illd/src/IfxAsclin.c.o
 .debug_loc     0x00000000000035e3     0x1023 obj/illd/src/IfxAsclin_Asc.c.o
 .debug_loc     0x0000000000004606      0x50e obj/illd/src/IfxCpu.c.o
 .debug_loc     0x0000000000004b14       0x13 obj/illd/src/IfxCpu_Irq.c.o
 .debug_loc     0x0000000000004b27      0xbbd obj/illd/src/IfxPort.c.o
 .debug_loc     0x00000000000056e4      0xd8b obj/illd/src/IfxScuCcu.c.o
 .debug_loc     0x000000000000646f      0x4d7 obj/illd/src/IfxScuEru.c.o
 .debug_loc     0x0000000000006946      0x496 obj/illd/src/IfxScuWdt.c.o
 .debug_loc     0x0000000000006ddc      0x11e obj/illd/src/IfxStdIf_DPipe.c.o
 .debug_loc     0x0000000000006efa      0x31c obj/illd/src/IfxStm.c.o
 .debug_loc     0x0000000000007216     0x1604 obj/illd/src/IfxVadc_Adc.c.o
 .debug_loc     0x000000000000881a      0x1a7 obj/illd/src/Ifx_CircularBuffer.c.o
 .debug_loc     0x00000000000089c1      0xdd1 obj/illd/src/Ifx_Fifo.c.o
 .debug_loc     0x0000000000009792      0x802 obj/motor_driver.c.o
 .debug_loc     0x0000000000009f94       0x71 obj/shiparker_App.c.o
 .debug_loc     0x000000000000a005      0x2bb obj/steering_Pid.c.o
 .debug_loc     0x000000000000a2c0      0x1f8 obj/uart_Driver.c.o
 .debug_loc     0x000000000000a4b8      0x3d0 obj/ultrasonic_Driver.c.o
 .debug_loc     0x000000000000a888      0x70b C:\Users\USER\Desktop\AUTODR~1\TC275\erika\lib\libee.a(ee_tc_cstart.c.o)
 .debug_loc     0x000000000000af93      0x83a C:\Users\USER\Desktop\AUTODR~1\TC275\erika\lib\libee.a(ee_tc_system.c.o)
 .debug_loc     0x000000000000b7cd       0x21 C:\Users\USER\Desktop\AUTODR~1\TC275\erika\lib\libee.a(ee_tc_intvec.c.o)
 .debug_loc     0x000000000000b7ee     0x17d7 C:\Users\USER\Desktop\AUTODR~1\TC275\erika\lib\libee.a(ee_oo_api_osek.c.o)
 .debug_loc     0x000000000000cfc5      0x169 C:\Users\USER\Desktop\AUTODR~1\TC275\erika\lib\libee.a(ee_oo_sched_entry_points.c.o)
 .debug_loc     0x000000000000d12e      0x4b4 C:\Users\USER\Desktop\AUTODR~1\TC275\erika\lib\libee.a(ee_oo_scheduler.c.o)
 .debug_loc     0x000000000000d5e2       0x90 C:\Users\USER\Desktop\AUTODR~1\TC275\erika\lib\libee.a(ee_oo_kernel.c.o)
 .debug_loc     0x000000000000d672      0x57a C:\Users\USER\Desktop\AUTODR~1\TC275\erika\lib\libee.a(ee_oo_sched_partitioned.c.o)
 .debug_loc     0x000000000000dbec      0x480 C:\Users\USER\Desktop\AUTODR~1\TC275\erika\lib\libee.a(ee_oo_counter.c.o)
 .debug_loc     0x000000000000e06c      0x3c4 C:\Users\USER\Desktop\AUTODR~1\TC275\erika\lib\libee.a(ee_oo_alarm.c.o)
 .debug_loc     0x000000000000e430      0x207 C:\Users\USER\Desktop\AUTODR~1\TC275\erika\lib\libee.a(ee_std_change_context.c.o)
 .debug_loc     0x000000000000e637       0xa6 C:\Users\USER\Desktop\AUTODR~1\TC275\erika\lib\libee.a(ee_tc_hal.c.o)
 .debug_loc     0x000000000000e6dd      0x29a C:\Users\USER\Desktop\AUTODR~1\TC275\erika\lib\libee.a(ee_tc_ctx.c.o)
 .debug_loc     0x000000000000e977       0x48 c:/hightec/toolchains/tricore/v4.9.3.0-infineon-1.0/bin/../lib/gcc/tricore/4.9.4/tc161\libgcc.a(_fixunsdfsi.o)
 .debug_loc     0x000000000000e9bf       0x71 c:/hightec/toolchains/tricore/v4.9.3.0-infineon-1.0/bin/../lib/gcc/tricore/4.9.4/tc161\libgcc.a(_floatundidf.o)
 .debug_loc     0x000000000000ea30       0x24 c:/hightec/toolchains/tricore/v4.9.3.0-infineon-1.0/bin/../lib/gcc/tricore/4.9.4/tc161\libgcc.a(_sf_to_df.o)
 .debug_loc     0x000000000000ea54      0x394 c:/hightec/toolchains/tricore/v4.9.3.0-infineon-1.0/bin/../lib/gcc/tricore/4.9.4/tc161\libgcc.a(_addsub_df.o)
 .debug_loc     0x000000000000ede8      0x42c c:/hightec/toolchains/tricore/v4.9.3.0-infineon-1.0/bin/../lib/gcc/tricore/4.9.4/tc161\libgcc.a(_mul_df.o)
 .debug_loc     0x000000000000f214      0x19b c:/hightec/toolchains/tricore/v4.9.3.0-infineon-1.0/bin/../lib/gcc/tricore/4.9.4/tc161\libgcc.a(_div_df.o)
 .debug_loc     0x000000000000f3af       0x52 c:/hightec/toolchains/tricore/v4.9.3.0-infineon-1.0/bin/../lib/gcc/tricore/4.9.4/tc161\libgcc.a(_gt_df.o)
 .debug_loc     0x000000000000f401       0x52 c:/hightec/toolchains/tricore/v4.9.3.0-infineon-1.0/bin/../lib/gcc/tricore/4.9.4/tc161\libgcc.a(_ge_df.o)
 .debug_loc     0x000000000000f453       0x52 c:/hightec/toolchains/tricore/v4.9.3.0-infineon-1.0/bin/../lib/gcc/tricore/4.9.4/tc161\libgcc.a(_lt_df.o)
 .debug_loc     0x000000000000f4a5       0x61 c:/hightec/toolchains/tricore/v4.9.3.0-infineon-1.0/bin/../lib/gcc/tricore/4.9.4/tc161\libgcc.a(_si_to_df.o)
 .debug_loc     0x000000000000f506       0x3c c:/hightec/toolchains/tricore/v4.9.3.0-infineon-1.0/bin/../lib/gcc/tricore/4.9.4/tc161\libgcc.a(_df_to_si.o)
 .debug_loc     0x000000000000f542       0x63 c:/hightec/toolchains/tricore/v4.9.3.0-infineon-1.0/bin/../lib/gcc/tricore/4.9.4/tc161\libgcc.a(_make_df.o)
 .debug_loc     0x000000000000f5a5       0x5f c:/hightec/toolchains/tricore/v4.9.3.0-infineon-1.0/bin/../lib/gcc/tricore/4.9.4/tc161\libgcc.a(_df_to_sf.o)
 .debug_loc     0x000000000000f604       0x9e c:/hightec/toolchains/tricore/v4.9.3.0-infineon-1.0/bin/../lib/gcc/tricore/4.9.4/tc161\libgcc.a(_usi_to_df.o)
 .debug_loc     0x000000000000f6a2      0x18e c:/hightec/toolchains/tricore/v4.9.3.0-infineon-1.0/bin/../lib/gcc/tricore/4.9.4/tc161\libgcc.a(udivdi3.o)
 .debug_loc     0x000000000000f830      0x126 c:/hightec/toolchains/tricore/v4.9.3.0-infineon-1.0/bin/../lib/gcc/tricore/4.9.4/tc161\libgcc.a(_unpack_sf.o)
 .debug_loc     0x000000000000f956       0x84 c:/hightec/toolchains/tricore/v4.9.3.0-infineon-1.0/bin/../lib/gcc/tricore/4.9.4/tc161\libgcc.a(_make_sf.o)
 .debug_loc     0x000000000000f9da      0x1a6 c:/hightec/toolchains/tricore/v4.9.3.0-infineon-1.0/bin/../lib/gcc/tricore/4.9.4/tc161\libgcc.a(_pack_df.o)
 .debug_loc     0x000000000000fb80       0xe9 c:/hightec/toolchains/tricore/v4.9.3.0-infineon-1.0/bin/../lib/gcc/tricore/4.9.4/tc161\libgcc.a(_unpack_df.o)
 .debug_loc     0x000000000000fc69       0x34 c:/hightec/toolchains/tricore/v4.9.3.0-infineon-1.0/bin/../lib/gcc/tricore/4.9.4/tc161\libgcc.a(_fpcmp_parts_df.o)
 .debug_loc     0x000000000000fc9d      0x21a c:/hightec/toolchains/tricore/v4.9.3.0-infineon-1.0/bin/../lib/gcc/tricore/4.9.4/tc161\libgcc.a(udiv6432.o)
 .debug_loc     0x000000000000feb7      0x16b c:/hightec/toolchains/tricore/v4.9.3.0-infineon-1.0/bin/../lib/gcc/tricore/4.9.4/tc161\libgcc.a(_pack_sf.o)
 .debug_loc     0x0000000000010022       0x4d c:/hightec/toolchains/tricore/v4.9.3.0-infineon-1.0/bin/../lib/gcc/tricore/4.9.4/../../../../tricore/lib/tc161\libc.a(lib_a-malloc.o)
 .debug_loc     0x000000000001006f      0x76d c:/hightec/toolchains/tricore/v4.9.3.0-infineon-1.0/bin/../lib/gcc/tricore/4.9.4/../../../../tricore/lib/tc161\libc.a(lib_a-mallocr.o)
 .debug_loc     0x00000000000107dc       0x3f c:/hightec/toolchains/tricore/v4.9.3.0-infineon-1.0/bin/../lib/gcc/tricore/4.9.4/../../../../tricore/lib/tc161\libc.a(lib_a-sbrkr.o)
 .debug_loc     0x000000000001081b       0x47 c:/hightec/toolchains/tricore/v4.9.3.0-infineon-1.0/bin/../lib/gcc/tricore/4.9.4/../../../../tricore/lib/tc161\libc.a(lib_a-strlen.o)
 .debug_loc     0x0000000000010862      0x15e c:/hightec/toolchains/tricore/v4.9.3.0-infineon-1.0/bin/../lib/gcc/tricore/4.9.4/../../../../tricore/lib/tc161\libc.a(lib_a-vsnprintf.o)
 .debug_loc     0x00000000000109c0      0x106 c:/hightec/toolchains/tricore/v4.9.3.0-infineon-1.0/bin/../lib/gcc/tricore/4.9.4/../../../../tricore/lib/tc161\libc.a(lib_a-vsprintf.o)
 .debug_loc     0x0000000000010ac6      0x3bf c:/hightec/toolchains/tricore/v4.9.3.0-infineon-1.0/bin/../lib/gcc/tricore/4.9.4/../../../../tricore/lib/tc161\libc.a(lib_a-freer.o)
 .debug_loc     0x0000000000010e85      0x106 c:/hightec/toolchains/tricore/v4.9.3.0-infineon-1.0/bin/../lib/gcc/tricore/4.9.4/../../../../tricore/lib/tc161\libc.a(lib_a-reent.o)
 .debug_loc     0x0000000000010f8b     0x143c c:/hightec/toolchains/tricore/v4.9.3.0-infineon-1.0/bin/../lib/gcc/tricore/4.9.4/../../../../tricore/lib/tc161\libc.a(lib_a-svfprintf.o)
 .debug_loc     0x00000000000123c7     0x1839 c:/hightec/toolchains/tricore/v4.9.3.0-infineon-1.0/bin/../lib/gcc/tricore/4.9.4/../../../../tricore/lib/tc161\libc.a(lib_a-dtoa.o)
 .debug_loc     0x0000000000013c00      0x13a c:/hightec/toolchains/tricore/v4.9.3.0-infineon-1.0/bin/../lib/gcc/tricore/4.9.4/../../../../tricore/lib/tc161\libc.a(lib_a-locale.o)
 .debug_loc     0x0000000000013d3a       0x94 c:/hightec/toolchains/tricore/v4.9.3.0-infineon-1.0/bin/../lib/gcc/tricore/4.9.4/../../../../tricore/lib/tc161\libc.a(lib_a-memchr.o)
 .debug_loc     0x0000000000013dce       0xae c:/hightec/toolchains/tricore/v4.9.3.0-infineon-1.0/bin/../lib/gcc/tricore/4.9.4/../../../../tricore/lib/tc161\libc.a(lib_a-memcpy.o)
 .debug_loc     0x0000000000013e7c     0x1581 c:/hightec/toolchains/tricore/v4.9.3.0-infineon-1.0/bin/../lib/gcc/tricore/4.9.4/../../../../tricore/lib/tc161\libc.a(lib_a-mprec.o)
 .debug_loc     0x00000000000153fd       0x13 c:/hightec/toolchains/tricore/v4.9.3.0-infineon-1.0/bin/../lib/gcc/tricore/4.9.4/../../../../tricore/lib/tc161\libc.a(lib_a-s_fpclassify.o)
 .debug_loc     0x0000000000015410       0x3c c:/hightec/toolchains/tricore/v4.9.3.0-infineon-1.0/bin/../lib/gcc/tricore/4.9.4/../../../../tricore/lib/tc161\libc.a(lib_a-strcmp.o)
 .debug_loc     0x000000000001544c      0xc60 c:/hightec/toolchains/tricore/v4.9.3.0-infineon-1.0/bin/../lib/gcc/tricore/4.9.4/../../../../tricore/lib/tc161\libc.a(lib_a-svfiprintf.o)
 .debug_loc     0x00000000000160ac      0x1da c:/hightec/toolchains/tricore/v4.9.3.0-infineon-1.0/bin/../lib/gcc/tricore/4.9.4/../../../../tricore/lib/tc161\libc.a(lib_a-callocr.o)
 .debug_loc     0x0000000000016286      0x147 c:/hightec/toolchains/tricore/v4.9.3.0-infineon-1.0/bin/../lib/gcc/tricore/4.9.4/../../../../tricore/lib/tc161\libc.a(lib_a-memmove.o)
 .debug_loc     0x00000000000163cd       0x67 c:/hightec/toolchains/tricore/v4.9.3.0-infineon-1.0/bin/../lib/gcc/tricore/4.9.4/../../../../tricore/lib/tc161\libc.a(lib_a-memset.o)
 .debug_loc     0x0000000000016434      0xf87 c:/hightec/toolchains/tricore/v4.9.3.0-infineon-1.0/bin/../lib/gcc/tricore/4.9.4/../../../../tricore/lib/tc161\libc.a(lib_a-reallocr.o)
 .debug_loc     0x00000000000173bb       0x6c c:/hightec/toolchains/tricore/v4.9.3.0-infineon-1.0/bin/../lib/gcc/tricore/4.9.4/../../../../tricore/lib/tc161\libos.a(libos_sbrk.o)
 .debug_loc     0x0000000000017427      0x181 c:/hightec/toolchains/tricore/v4.9.3.0-infineon-1.0/bin/../lib/gcc/tricore/4.9.4/../../../../tricore/lib/tc161\libos.a(libos.o)
 .debug_loc     0x00000000000175a8      0x3b5 c:/hightec/toolchains/tricore/v4.9.3.0-infineon-1.0/bin/../lib/gcc/tricore/4.9.4/../../../../tricore/lib/tc161\libm.a(lib_a-s_atan.o)
 .debug_loc     0x000000000001795d       0x40 c:/hightec/toolchains/tricore/v4.9.3.0-infineon-1.0/bin/../lib/gcc/tricore/4.9.4/../../../../tricore/lib/tc161\libm.a(lib_a-s_fabs.o)
 .debug_loc     0x000000000001799d       0x5a c:/hightec/toolchains/tricore/v4.9.3.0-infineon-1.0/bin/../lib/gcc/tricore/4.9.4/../../../../tricore/lib/tc161\libm.a(lib_a-wf_sincos.o)
 .debug_loc     0x00000000000179f7       0x55 c:/hightec/toolchains/tricore/v4.9.3.0-infineon-1.0/bin/../lib/gcc/tricore/4.9.4/../../../../tricore/lib/tc161\libm.a(lib_a-sf_cos.o)
 .debug_loc     0x0000000000017a4c       0x55 c:/hightec/toolchains/tricore/v4.9.3.0-infineon-1.0/bin/../lib/gcc/tricore/4.9.4/../../../../tricore/lib/tc161\libm.a(lib_a-sf_sin.o)
 .debug_loc     0x0000000000017aa1      0x58a c:/hightec/toolchains/tricore/v4.9.3.0-infineon-1.0/bin/../lib/gcc/tricore/4.9.4/../../../../tricore/lib/tc161\libm.a(lib_a-ef_rem_pio2.o)
 .debug_loc     0x000000000001802b       0xe2 c:/hightec/toolchains/tricore/v4.9.3.0-infineon-1.0/bin/../lib/gcc/tricore/4.9.4/../../../../tricore/lib/tc161\libm.a(lib_a-kf_cos.o)
 .debug_loc     0x000000000001810d      0xb7a c:/hightec/toolchains/tricore/v4.9.3.0-infineon-1.0/bin/../lib/gcc/tricore/4.9.4/../../../../tricore/lib/tc161\libm.a(lib_a-kf_rem_pio2.o)
 .debug_loc     0x0000000000018c87       0xa8 c:/hightec/toolchains/tricore/v4.9.3.0-infineon-1.0/bin/../lib/gcc/tricore/4.9.4/../../../../tricore/lib/tc161\libm.a(lib_a-kf_sin.o)
 .debug_loc     0x0000000000018d2f       0x29 c:/hightec/toolchains/tricore/v4.9.3.0-infineon-1.0/bin/../lib/gcc/tricore/4.9.4/../../../../tricore/lib/tc161\libm.a(lib_a-sf_fabs.o)
 .debug_loc     0x0000000000018d58      0x1ed c:/hightec/toolchains/tricore/v4.9.3.0-infineon-1.0/bin/../lib/gcc/tricore/4.9.4/../../../../tricore/lib/tc161\libm.a(lib_a-sf_floor.o)
 .debug_loc     0x0000000000018f45      0x28b c:/hightec/toolchains/tricore/v4.9.3.0-infineon-1.0/bin/../lib/gcc/tricore/4.9.4/../../../../tricore/lib/tc161\libm.a(lib_a-sf_scalbn.o)
 .debug_loc     0x00000000000191d0       0x31 c:/hightec/toolchains/tricore/v4.9.3.0-infineon-1.0/bin/../lib/gcc/tricore/4.9.4/../../../../tricore/lib/tc161\libm.a(lib_a-sf_copysign.o)
 .debug_loc     0x0000000000019201       0x52 c:/hightec/toolchains/tricore/v4.9.3.0-infineon-1.0/bin/../lib/gcc/tricore/4.9.4/tc161\libgcc.a(_eq_df.o)
 .debug_loc     0x0000000000019253       0x52 c:/hightec/toolchains/tricore/v4.9.3.0-infineon-1.0/bin/../lib/gcc/tricore/4.9.4/tc161\libgcc.a(_ne_df.o)
 .debug_loc     0x00000000000192a5       0x62 c:/hightec/toolchains/tricore/v4.9.3.0-infineon-1.0/bin/../lib/gcc/tricore/4.9.4/tc161\libgcc.a(umoddi3.o)

.debug_macinfo
 *(.debug_macinfo)

.debug_ranges   memory region -> *default*
                0x0000000000000000     0x1a88
 *(.debug_ranges)
 .debug_ranges  0x0000000000000000      0x158 obj/bsw.c.o
 .debug_ranges  0x0000000000000158      0x160 obj/hall_Driver.c.o
 .debug_ranges  0x00000000000002b8       0x30 obj/illd/Libraries/iLLD/TC27D/Tricore/Gtm/Std/IfxGtm_Cmu.c.o
 .debug_ranges  0x00000000000002e8       0x18 obj/illd/Libraries/iLLD/TC27D/Tricore/Gtm/Tom/Pwm/IfxGtm_Tom_Pwm.c.o
 .debug_ranges  0x0000000000000300       0x50 obj/illd/Libraries/iLLD/TC27D/Tricore/Vadc/std/IfxVadc.c.o
 .debug_ranges  0x0000000000000350       0xa8 obj/illd/Libraries/iLLD/TC27D/Tricore/_PinMap/IfxGtm_PinMap.c.o
 .debug_ranges  0x00000000000003f8       0x98 obj/illd/src/IfxAsclin.c.o
 .debug_ranges  0x0000000000000490      0x150 obj/illd/src/IfxAsclin_Asc.c.o
 .debug_ranges  0x00000000000005e0       0x38 obj/illd/src/IfxCpu.c.o
 .debug_ranges  0x0000000000000618       0x70 obj/illd/src/IfxPort.c.o
 .debug_ranges  0x0000000000000688       0xe0 obj/illd/src/IfxScuCcu.c.o
 .debug_ranges  0x0000000000000768       0x20 obj/illd/src/IfxStdIf_DPipe.c.o
 .debug_ranges  0x0000000000000788       0x48 obj/illd/src/IfxStm.c.o
 .debug_ranges  0x00000000000007d0      0x3b8 obj/illd/src/IfxVadc_Adc.c.o
 .debug_ranges  0x0000000000000b88      0x120 obj/illd/src/Ifx_Fifo.c.o
 .debug_ranges  0x0000000000000ca8      0x320 obj/motor_driver.c.o
 .debug_ranges  0x0000000000000fc8       0x18 obj/shiparker_App.c.o
 .debug_ranges  0x0000000000000fe0       0x20 obj/steering_Pid.c.o
 .debug_ranges  0x0000000000001000       0xb0 obj/ultrasonic_Driver.c.o
 .debug_ranges  0x00000000000010b0      0x1c0 C:\Users\USER\Desktop\AUTODR~1\TC275\erika\lib\libee.a(ee_tc_cstart.c.o)
 .debug_ranges  0x0000000000001270       0x30 C:\Users\USER\Desktop\AUTODR~1\TC275\erika\lib\libee.a(ee_oo_api_osek.c.o)
 .debug_ranges  0x00000000000012a0       0x48 C:\Users\USER\Desktop\AUTODR~1\TC275\erika\lib\libee.a(ee_oo_scheduler.c.o)
 .debug_ranges  0x00000000000012e8       0xa8 C:\Users\USER\Desktop\AUTODR~1\TC275\erika\lib\libee.a(ee_oo_counter.c.o)
 .debug_ranges  0x0000000000001390       0x38 C:\Users\USER\Desktop\AUTODR~1\TC275\erika\lib\libee.a(ee_tc_hal.c.o)
 .debug_ranges  0x00000000000013c8       0x30 C:\Users\USER\Desktop\AUTODR~1\TC275\erika\lib\libee.a(ee_tc_ctx.c.o)
 .debug_ranges  0x00000000000013f8       0x10 c:/hightec/toolchains/tricore/v4.9.3.0-infineon-1.0/bin/../lib/gcc/tricore/4.9.4/tc161\libgcc.a(_fixunsdfsi.o)
 .debug_ranges  0x0000000000001408       0x10 c:/hightec/toolchains/tricore/v4.9.3.0-infineon-1.0/bin/../lib/gcc/tricore/4.9.4/tc161\libgcc.a(_floatundidf.o)
 .debug_ranges  0x0000000000001418       0x10 c:/hightec/toolchains/tricore/v4.9.3.0-infineon-1.0/bin/../lib/gcc/tricore/4.9.4/tc161\libgcc.a(_sf_to_df.o)
 .debug_ranges  0x0000000000001428       0x20 c:/hightec/toolchains/tricore/v4.9.3.0-infineon-1.0/bin/../lib/gcc/tricore/4.9.4/tc161\libgcc.a(_addsub_df.o)
 .debug_ranges  0x0000000000001448       0x10 c:/hightec/toolchains/tricore/v4.9.3.0-infineon-1.0/bin/../lib/gcc/tricore/4.9.4/tc161\libgcc.a(_mul_df.o)
 .debug_ranges  0x0000000000001458       0x10 c:/hightec/toolchains/tricore/v4.9.3.0-infineon-1.0/bin/../lib/gcc/tricore/4.9.4/tc161\libgcc.a(_div_df.o)
 .debug_ranges  0x0000000000001468       0x10 c:/hightec/toolchains/tricore/v4.9.3.0-infineon-1.0/bin/../lib/gcc/tricore/4.9.4/tc161\libgcc.a(_gt_df.o)
 .debug_ranges  0x0000000000001478       0x10 c:/hightec/toolchains/tricore/v4.9.3.0-infineon-1.0/bin/../lib/gcc/tricore/4.9.4/tc161\libgcc.a(_ge_df.o)
 .debug_ranges  0x0000000000001488       0x10 c:/hightec/toolchains/tricore/v4.9.3.0-infineon-1.0/bin/../lib/gcc/tricore/4.9.4/tc161\libgcc.a(_lt_df.o)
 .debug_ranges  0x0000000000001498       0x10 c:/hightec/toolchains/tricore/v4.9.3.0-infineon-1.0/bin/../lib/gcc/tricore/4.9.4/tc161\libgcc.a(_si_to_df.o)
 .debug_ranges  0x00000000000014a8       0x10 c:/hightec/toolchains/tricore/v4.9.3.0-infineon-1.0/bin/../lib/gcc/tricore/4.9.4/tc161\libgcc.a(_df_to_si.o)
 .debug_ranges  0x00000000000014b8       0x10 c:/hightec/toolchains/tricore/v4.9.3.0-infineon-1.0/bin/../lib/gcc/tricore/4.9.4/tc161\libgcc.a(_make_df.o)
 .debug_ranges  0x00000000000014c8       0x10 c:/hightec/toolchains/tricore/v4.9.3.0-infineon-1.0/bin/../lib/gcc/tricore/4.9.4/tc161\libgcc.a(_df_to_sf.o)
 .debug_ranges  0x00000000000014d8       0x10 c:/hightec/toolchains/tricore/v4.9.3.0-infineon-1.0/bin/../lib/gcc/tricore/4.9.4/tc161\libgcc.a(_usi_to_df.o)
 .debug_ranges  0x00000000000014e8       0x10 c:/hightec/toolchains/tricore/v4.9.3.0-infineon-1.0/bin/../lib/gcc/tricore/4.9.4/tc161\libgcc.a(udivdi3.o)
 .debug_ranges  0x00000000000014f8       0x10 c:/hightec/toolchains/tricore/v4.9.3.0-infineon-1.0/bin/../lib/gcc/tricore/4.9.4/tc161\libgcc.a(_unpack_sf.o)
 .debug_ranges  0x0000000000001508       0x10 c:/hightec/toolchains/tricore/v4.9.3.0-infineon-1.0/bin/../lib/gcc/tricore/4.9.4/tc161\libgcc.a(_make_sf.o)
 .debug_ranges  0x0000000000001518       0x10 c:/hightec/toolchains/tricore/v4.9.3.0-infineon-1.0/bin/../lib/gcc/tricore/4.9.4/tc161\libgcc.a(_pack_df.o)
 .debug_ranges  0x0000000000001528       0x10 c:/hightec/toolchains/tricore/v4.9.3.0-infineon-1.0/bin/../lib/gcc/tricore/4.9.4/tc161\libgcc.a(_unpack_df.o)
 .debug_ranges  0x0000000000001538       0x10 c:/hightec/toolchains/tricore/v4.9.3.0-infineon-1.0/bin/../lib/gcc/tricore/4.9.4/tc161\libgcc.a(_fpcmp_parts_df.o)
 .debug_ranges  0x0000000000001548       0x10 c:/hightec/toolchains/tricore/v4.9.3.0-infineon-1.0/bin/../lib/gcc/tricore/4.9.4/tc161\libgcc.a(udiv6432.o)
 .debug_ranges  0x0000000000001558       0x10 c:/hightec/toolchains/tricore/v4.9.3.0-infineon-1.0/bin/../lib/gcc/tricore/4.9.4/tc161\libgcc.a(_pack_sf.o)
 .debug_ranges  0x0000000000001568       0x18 c:/hightec/toolchains/tricore/v4.9.3.0-infineon-1.0/bin/../lib/gcc/tricore/4.9.4/../../../../tricore/lib/tc161\libc.a(lib_a-malloc.o)
 .debug_ranges  0x0000000000001580       0x10 c:/hightec/toolchains/tricore/v4.9.3.0-infineon-1.0/bin/../lib/gcc/tricore/4.9.4/../../../../tricore/lib/tc161\libc.a(lib_a-mallocr.o)
 .debug_ranges  0x0000000000001590       0x18 c:/hightec/toolchains/tricore/v4.9.3.0-infineon-1.0/bin/../lib/gcc/tricore/4.9.4/../../../../tricore/lib/tc161\libc.a(lib_a-mlock.o)
 .debug_ranges  0x00000000000015a8       0x10 c:/hightec/toolchains/tricore/v4.9.3.0-infineon-1.0/bin/../lib/gcc/tricore/4.9.4/../../../../tricore/lib/tc161\libc.a(lib_a-sbrkr.o)
 .debug_ranges  0x00000000000015b8       0x10 c:/hightec/toolchains/tricore/v4.9.3.0-infineon-1.0/bin/../lib/gcc/tricore/4.9.4/../../../../tricore/lib/tc161\libc.a(lib_a-strlen.o)
 .debug_ranges  0x00000000000015c8       0x18 c:/hightec/toolchains/tricore/v4.9.3.0-infineon-1.0/bin/../lib/gcc/tricore/4.9.4/../../../../tricore/lib/tc161\libc.a(lib_a-vsnprintf.o)
 .debug_ranges  0x00000000000015e0       0x18 c:/hightec/toolchains/tricore/v4.9.3.0-infineon-1.0/bin/../lib/gcc/tricore/4.9.4/../../../../tricore/lib/tc161\libc.a(lib_a-vsprintf.o)
 .debug_ranges  0x00000000000015f8       0x18 c:/hightec/toolchains/tricore/v4.9.3.0-infineon-1.0/bin/../lib/gcc/tricore/4.9.4/../../../../tricore/lib/tc161\libc.a(lib_a-freer.o)
 .debug_ranges  0x0000000000001610       0x20 c:/hightec/toolchains/tricore/v4.9.3.0-infineon-1.0/bin/../lib/gcc/tricore/4.9.4/../../../../tricore/lib/tc161\libc.a(lib_a-reent.o)
 .debug_ranges  0x0000000000001630       0x70 c:/hightec/toolchains/tricore/v4.9.3.0-infineon-1.0/bin/../lib/gcc/tricore/4.9.4/../../../../tricore/lib/tc161\libc.a(lib_a-svfprintf.o)
 .debug_ranges  0x00000000000016a0       0x18 c:/hightec/toolchains/tricore/v4.9.3.0-infineon-1.0/bin/../lib/gcc/tricore/4.9.4/../../../../tricore/lib/tc161\libc.a(lib_a-dtoa.o)
 .debug_ranges  0x00000000000016b8       0x40 c:/hightec/toolchains/tricore/v4.9.3.0-infineon-1.0/bin/../lib/gcc/tricore/4.9.4/../../../../tricore/lib/tc161\libc.a(lib_a-locale.o)
 .debug_ranges  0x00000000000016f8       0x10 c:/hightec/toolchains/tricore/v4.9.3.0-infineon-1.0/bin/../lib/gcc/tricore/4.9.4/../../../../tricore/lib/tc161\libc.a(lib_a-memchr.o)
 .debug_ranges  0x0000000000001708       0x10 c:/hightec/toolchains/tricore/v4.9.3.0-infineon-1.0/bin/../lib/gcc/tricore/4.9.4/../../../../tricore/lib/tc161\libc.a(lib_a-memcpy.o)
 .debug_ranges  0x0000000000001718       0xa0 c:/hightec/toolchains/tricore/v4.9.3.0-infineon-1.0/bin/../lib/gcc/tricore/4.9.4/../../../../tricore/lib/tc161\libc.a(lib_a-mprec.o)
 .debug_ranges  0x00000000000017b8       0x10 c:/hightec/toolchains/tricore/v4.9.3.0-infineon-1.0/bin/../lib/gcc/tricore/4.9.4/../../../../tricore/lib/tc161\libc.a(lib_a-s_fpclassify.o)
 .debug_ranges  0x00000000000017c8       0x10 c:/hightec/toolchains/tricore/v4.9.3.0-infineon-1.0/bin/../lib/gcc/tricore/4.9.4/../../../../tricore/lib/tc161\libc.a(lib_a-strcmp.o)
 .debug_ranges  0x00000000000017d8       0x58 c:/hightec/toolchains/tricore/v4.9.3.0-infineon-1.0/bin/../lib/gcc/tricore/4.9.4/../../../../tricore/lib/tc161\libc.a(lib_a-svfiprintf.o)
 .debug_ranges  0x0000000000001830       0x10 c:/hightec/toolchains/tricore/v4.9.3.0-infineon-1.0/bin/../lib/gcc/tricore/4.9.4/../../../../tricore/lib/tc161\libc.a(lib_a-callocr.o)
 .debug_ranges  0x0000000000001840       0x10 c:/hightec/toolchains/tricore/v4.9.3.0-infineon-1.0/bin/../lib/gcc/tricore/4.9.4/../../../../tricore/lib/tc161\libc.a(lib_a-memmove.o)
 .debug_ranges  0x0000000000001850       0x10 c:/hightec/toolchains/tricore/v4.9.3.0-infineon-1.0/bin/../lib/gcc/tricore/4.9.4/../../../../tricore/lib/tc161\libc.a(lib_a-memset.o)
 .debug_ranges  0x0000000000001860       0x68 c:/hightec/toolchains/tricore/v4.9.3.0-infineon-1.0/bin/../lib/gcc/tricore/4.9.4/../../../../tricore/lib/tc161\libc.a(lib_a-reallocr.o)
 .debug_ranges  0x00000000000018c8       0x10 c:/hightec/toolchains/tricore/v4.9.3.0-infineon-1.0/bin/../lib/gcc/tricore/4.9.4/../../../../tricore/lib/tc161\libos.a(libos_exit.o)
 .debug_ranges  0x00000000000018d8       0x10 c:/hightec/toolchains/tricore/v4.9.3.0-infineon-1.0/bin/../lib/gcc/tricore/4.9.4/../../../../tricore/lib/tc161\libos.a(libos_sbrk.o)
 .debug_ranges  0x00000000000018e8       0x58 c:/hightec/toolchains/tricore/v4.9.3.0-infineon-1.0/bin/../lib/gcc/tricore/4.9.4/../../../../tricore/lib/tc161\libos.a(libos.o)
 .debug_ranges  0x0000000000001940       0x10 c:/hightec/toolchains/tricore/v4.9.3.0-infineon-1.0/bin/../lib/gcc/tricore/4.9.4/../../../../tricore/lib/tc161\libos.a(libos_abort.o)
 .debug_ranges  0x0000000000001950       0x10 c:/hightec/toolchains/tricore/v4.9.3.0-infineon-1.0/bin/../lib/gcc/tricore/4.9.4/../../../../tricore/lib/tc161\libm.a(lib_a-s_atan.o)
 .debug_ranges  0x0000000000001960       0x10 c:/hightec/toolchains/tricore/v4.9.3.0-infineon-1.0/bin/../lib/gcc/tricore/4.9.4/../../../../tricore/lib/tc161\libm.a(lib_a-s_fabs.o)
 .debug_ranges  0x0000000000001970       0x10 c:/hightec/toolchains/tricore/v4.9.3.0-infineon-1.0/bin/../lib/gcc/tricore/4.9.4/../../../../tricore/lib/tc161\libm.a(lib_a-wf_sincos.o)
 .debug_ranges  0x0000000000001980       0x10 c:/hightec/toolchains/tricore/v4.9.3.0-infineon-1.0/bin/../lib/gcc/tricore/4.9.4/../../../../tricore/lib/tc161\libm.a(lib_a-sf_cos.o)
 .debug_ranges  0x0000000000001990       0x10 c:/hightec/toolchains/tricore/v4.9.3.0-infineon-1.0/bin/../lib/gcc/tricore/4.9.4/../../../../tricore/lib/tc161\libm.a(lib_a-sf_sin.o)
 .debug_ranges  0x00000000000019a0       0x28 c:/hightec/toolchains/tricore/v4.9.3.0-infineon-1.0/bin/../lib/gcc/tricore/4.9.4/../../../../tricore/lib/tc161\libm.a(lib_a-ef_rem_pio2.o)
 .debug_ranges  0x00000000000019c8       0x30 c:/hightec/toolchains/tricore/v4.9.3.0-infineon-1.0/bin/../lib/gcc/tricore/4.9.4/../../../../tricore/lib/tc161\libm.a(lib_a-kf_cos.o)
 .debug_ranges  0x00000000000019f8       0x10 c:/hightec/toolchains/tricore/v4.9.3.0-infineon-1.0/bin/../lib/gcc/tricore/4.9.4/../../../../tricore/lib/tc161\libm.a(lib_a-kf_rem_pio2.o)
 .debug_ranges  0x0000000000001a08       0x10 c:/hightec/toolchains/tricore/v4.9.3.0-infineon-1.0/bin/../lib/gcc/tricore/4.9.4/../../../../tricore/lib/tc161\libm.a(lib_a-kf_sin.o)
 .debug_ranges  0x0000000000001a18       0x10 c:/hightec/toolchains/tricore/v4.9.3.0-infineon-1.0/bin/../lib/gcc/tricore/4.9.4/../../../../tricore/lib/tc161\libm.a(lib_a-sf_fabs.o)
 .debug_ranges  0x0000000000001a28       0x10 c:/hightec/toolchains/tricore/v4.9.3.0-infineon-1.0/bin/../lib/gcc/tricore/4.9.4/../../../../tricore/lib/tc161\libm.a(lib_a-sf_floor.o)
 .debug_ranges  0x0000000000001a38       0x10 c:/hightec/toolchains/tricore/v4.9.3.0-infineon-1.0/bin/../lib/gcc/tricore/4.9.4/../../../../tricore/lib/tc161\libm.a(lib_a-sf_scalbn.o)
 .debug_ranges  0x0000000000001a48       0x10 c:/hightec/toolchains/tricore/v4.9.3.0-infineon-1.0/bin/../lib/gcc/tricore/4.9.4/../../../../tricore/lib/tc161\libm.a(lib_a-sf_copysign.o)
 .debug_ranges  0x0000000000001a58       0x10 c:/hightec/toolchains/tricore/v4.9.3.0-infineon-1.0/bin/../lib/gcc/tricore/4.9.4/tc161\libgcc.a(_eq_df.o)
 .debug_ranges  0x0000000000001a68       0x10 c:/hightec/toolchains/tricore/v4.9.3.0-infineon-1.0/bin/../lib/gcc/tricore/4.9.4/tc161\libgcc.a(_ne_df.o)
 .debug_ranges  0x0000000000001a78       0x10 c:/hightec/toolchains/tricore/v4.9.3.0-infineon-1.0/bin/../lib/gcc/tricore/4.9.4/tc161\libgcc.a(umoddi3.o)

.debug_weaknames
 *(.debug_weaknames)

.debug_funcnames
 *(.debug_funcnames)

.debug_typenames
 *(.debug_typenames)

.debug_varnames
 *(.debug_varnames)

.version_info   memory region -> *default*
                0x0000000000000000    0x6085a
 *(.version_info)
 .version_info  0x0000000000000000     0x190a c:/hightec/toolchains/tricore/v4.9.3.0-infineon-1.0/bin/../lib/gcc/tricore/4.9.4/tc161\libgcc.a(_fixunsdfsi.o)
 .version_info  0x000000000000190a     0x1913 c:/hightec/toolchains/tricore/v4.9.3.0-infineon-1.0/bin/../lib/gcc/tricore/4.9.4/tc161\libgcc.a(_floatundidf.o)
 .version_info  0x000000000000321d     0x193a c:/hightec/toolchains/tricore/v4.9.3.0-infineon-1.0/bin/../lib/gcc/tricore/4.9.4/tc161\libgcc.a(_sf_to_df.o)
 .version_info  0x0000000000004b57     0x1932 c:/hightec/toolchains/tricore/v4.9.3.0-infineon-1.0/bin/../lib/gcc/tricore/4.9.4/tc161\libgcc.a(_addsub_df.o)
 .version_info  0x0000000000006489     0x1917 c:/hightec/toolchains/tricore/v4.9.3.0-infineon-1.0/bin/../lib/gcc/tricore/4.9.4/tc161\libgcc.a(_mul_df.o)
 .version_info  0x0000000000007da0     0x1917 c:/hightec/toolchains/tricore/v4.9.3.0-infineon-1.0/bin/../lib/gcc/tricore/4.9.4/tc161\libgcc.a(_div_df.o)
 .version_info  0x00000000000096b7     0x190e c:/hightec/toolchains/tricore/v4.9.3.0-infineon-1.0/bin/../lib/gcc/tricore/4.9.4/tc161\libgcc.a(_gt_df.o)
 .version_info  0x000000000000afc5     0x190e c:/hightec/toolchains/tricore/v4.9.3.0-infineon-1.0/bin/../lib/gcc/tricore/4.9.4/tc161\libgcc.a(_ge_df.o)
 .version_info  0x000000000000c8d3     0x190e c:/hightec/toolchains/tricore/v4.9.3.0-infineon-1.0/bin/../lib/gcc/tricore/4.9.4/tc161\libgcc.a(_lt_df.o)
 .version_info  0x000000000000e1e1     0x1929 c:/hightec/toolchains/tricore/v4.9.3.0-infineon-1.0/bin/../lib/gcc/tricore/4.9.4/tc161\libgcc.a(_si_to_df.o)
 .version_info  0x000000000000fb0a     0x1929 c:/hightec/toolchains/tricore/v4.9.3.0-infineon-1.0/bin/../lib/gcc/tricore/4.9.4/tc161\libgcc.a(_df_to_si.o)
 .version_info  0x0000000000011433     0x1920 c:/hightec/toolchains/tricore/v4.9.3.0-infineon-1.0/bin/../lib/gcc/tricore/4.9.4/tc161\libgcc.a(_make_df.o)
 .version_info  0x0000000000012d53     0x1929 c:/hightec/toolchains/tricore/v4.9.3.0-infineon-1.0/bin/../lib/gcc/tricore/4.9.4/tc161\libgcc.a(_df_to_sf.o)
 .version_info  0x000000000001467c     0x1932 c:/hightec/toolchains/tricore/v4.9.3.0-infineon-1.0/bin/../lib/gcc/tricore/4.9.4/tc161\libgcc.a(_thenan_df.o)
 .version_info  0x0000000000015fae     0x1932 c:/hightec/toolchains/tricore/v4.9.3.0-infineon-1.0/bin/../lib/gcc/tricore/4.9.4/tc161\libgcc.a(_usi_to_df.o)
 .version_info  0x00000000000178e0     0x18f3 c:/hightec/toolchains/tricore/v4.9.3.0-infineon-1.0/bin/../lib/gcc/tricore/4.9.4/tc161\libgcc.a(udivdi3.o)
 .version_info  0x00000000000191d3     0x1943 c:/hightec/toolchains/tricore/v4.9.3.0-infineon-1.0/bin/../lib/gcc/tricore/4.9.4/tc161\libgcc.a(_unpack_sf.o)
 .version_info  0x000000000001ab16     0x1931 c:/hightec/toolchains/tricore/v4.9.3.0-infineon-1.0/bin/../lib/gcc/tricore/4.9.4/tc161\libgcc.a(_make_sf.o)
 .version_info  0x000000000001c447     0x1920 c:/hightec/toolchains/tricore/v4.9.3.0-infineon-1.0/bin/../lib/gcc/tricore/4.9.4/tc161\libgcc.a(_pack_df.o)
 .version_info  0x000000000001dd67     0x1932 c:/hightec/toolchains/tricore/v4.9.3.0-infineon-1.0/bin/../lib/gcc/tricore/4.9.4/tc161\libgcc.a(_unpack_df.o)
 .version_info  0x000000000001f699     0x195f c:/hightec/toolchains/tricore/v4.9.3.0-infineon-1.0/bin/../lib/gcc/tricore/4.9.4/tc161\libgcc.a(_fpcmp_parts_df.o)
 .version_info  0x0000000000020ff8     0x18fc c:/hightec/toolchains/tricore/v4.9.3.0-infineon-1.0/bin/../lib/gcc/tricore/4.9.4/tc161\libgcc.a(udiv6432.o)
 .version_info  0x00000000000228f4     0x1931 c:/hightec/toolchains/tricore/v4.9.3.0-infineon-1.0/bin/../lib/gcc/tricore/4.9.4/tc161\libgcc.a(_pack_sf.o)
 .version_info  0x0000000000024225     0x166b c:/hightec/toolchains/tricore/v4.9.3.0-infineon-1.0/bin/../lib/gcc/tricore/4.9.4/../../../../tricore/lib/tc161\libc.a(lib_a-malloc.o)
 .version_info  0x0000000000025890     0x16b5 c:/hightec/toolchains/tricore/v4.9.3.0-infineon-1.0/bin/../lib/gcc/tricore/4.9.4/../../../../tricore/lib/tc161\libc.a(lib_a-mallocr.o)
 .version_info  0x0000000000026f45     0x1667 c:/hightec/toolchains/tricore/v4.9.3.0-infineon-1.0/bin/../lib/gcc/tricore/4.9.4/../../../../tricore/lib/tc161\libc.a(lib_a-mlock.o)
 .version_info  0x00000000000285ac     0x1663 c:/hightec/toolchains/tricore/v4.9.3.0-infineon-1.0/bin/../lib/gcc/tricore/4.9.4/../../../../tricore/lib/tc161\libc.a(lib_a-sbrkr.o)
 .version_info  0x0000000000029c0f     0x166b c:/hightec/toolchains/tricore/v4.9.3.0-infineon-1.0/bin/../lib/gcc/tricore/4.9.4/../../../../tricore/lib/tc161\libc.a(lib_a-strlen.o)
 .version_info  0x000000000002b27a     0x1673 c:/hightec/toolchains/tricore/v4.9.3.0-infineon-1.0/bin/../lib/gcc/tricore/4.9.4/../../../../tricore/lib/tc161\libc.a(lib_a-vsnprintf.o)
 .version_info  0x000000000002c8ed     0x166f c:/hightec/toolchains/tricore/v4.9.3.0-infineon-1.0/bin/../lib/gcc/tricore/4.9.4/../../../../tricore/lib/tc161\libc.a(lib_a-vsprintf.o)
 .version_info  0x000000000002df5c     0x16ad c:/hightec/toolchains/tricore/v4.9.3.0-infineon-1.0/bin/../lib/gcc/tricore/4.9.4/../../../../tricore/lib/tc161\libc.a(lib_a-freer.o)
 .version_info  0x000000000002f609     0x1667 c:/hightec/toolchains/tricore/v4.9.3.0-infineon-1.0/bin/../lib/gcc/tricore/4.9.4/../../../../tricore/lib/tc161\libc.a(lib_a-impure.o)
 .version_info  0x0000000000030c70     0x1663 c:/hightec/toolchains/tricore/v4.9.3.0-infineon-1.0/bin/../lib/gcc/tricore/4.9.4/../../../../tricore/lib/tc161\libc.a(lib_a-reent.o)
 .version_info  0x00000000000322d3     0x16aa c:/hightec/toolchains/tricore/v4.9.3.0-infineon-1.0/bin/../lib/gcc/tricore/4.9.4/../../../../tricore/lib/tc161\libc.a(lib_a-svfprintf.o)
 .version_info  0x000000000003397d     0x1663 c:/hightec/toolchains/tricore/v4.9.3.0-infineon-1.0/bin/../lib/gcc/tricore/4.9.4/../../../../tricore/lib/tc161\libc.a(lib_a-dtoa.o)
 .version_info  0x0000000000034fe0     0x166b c:/hightec/toolchains/tricore/v4.9.3.0-infineon-1.0/bin/../lib/gcc/tricore/4.9.4/../../../../tricore/lib/tc161\libc.a(lib_a-locale.o)
 .version_info  0x000000000003664b     0x166b c:/hightec/toolchains/tricore/v4.9.3.0-infineon-1.0/bin/../lib/gcc/tricore/4.9.4/../../../../tricore/lib/tc161\libc.a(lib_a-memchr.o)
 .version_info  0x0000000000037cb6     0x166b c:/hightec/toolchains/tricore/v4.9.3.0-infineon-1.0/bin/../lib/gcc/tricore/4.9.4/../../../../tricore/lib/tc161\libc.a(lib_a-memcpy.o)
 .version_info  0x0000000000039321     0x1667 c:/hightec/toolchains/tricore/v4.9.3.0-infineon-1.0/bin/../lib/gcc/tricore/4.9.4/../../../../tricore/lib/tc161\libc.a(lib_a-mprec.o)
 .version_info  0x000000000003a988     0x1683 c:/hightec/toolchains/tricore/v4.9.3.0-infineon-1.0/bin/../lib/gcc/tricore/4.9.4/../../../../tricore/lib/tc161\libc.a(lib_a-s_fpclassify.o)
 .version_info  0x000000000003c00b     0x166b c:/hightec/toolchains/tricore/v4.9.3.0-infineon-1.0/bin/../lib/gcc/tricore/4.9.4/../../../../tricore/lib/tc161\libc.a(lib_a-strcmp.o)
 .version_info  0x000000000003d676     0x16cb c:/hightec/toolchains/tricore/v4.9.3.0-infineon-1.0/bin/../lib/gcc/tricore/4.9.4/../../../../tricore/lib/tc161\libc.a(lib_a-svfiprintf.o)
 .version_info  0x000000000003ed41     0x16b5 c:/hightec/toolchains/tricore/v4.9.3.0-infineon-1.0/bin/../lib/gcc/tricore/4.9.4/../../../../tricore/lib/tc161\libc.a(lib_a-callocr.o)
 .version_info  0x00000000000403f6     0x166f c:/hightec/toolchains/tricore/v4.9.3.0-infineon-1.0/bin/../lib/gcc/tricore/4.9.4/../../../../tricore/lib/tc161\libc.a(lib_a-memmove.o)
 .version_info  0x0000000000041a65     0x166b c:/hightec/toolchains/tricore/v4.9.3.0-infineon-1.0/bin/../lib/gcc/tricore/4.9.4/../../../../tricore/lib/tc161\libc.a(lib_a-memset.o)
 .version_info  0x00000000000430d0     0x16b9 c:/hightec/toolchains/tricore/v4.9.3.0-infineon-1.0/bin/../lib/gcc/tricore/4.9.4/../../../../tricore/lib/tc161\libc.a(lib_a-reallocr.o)
 .version_info  0x0000000000044789     0x133f c:/hightec/toolchains/tricore/v4.9.3.0-infineon-1.0/bin/../lib/gcc/tricore/4.9.4/../../../../tricore/lib/tc161\libos.a(libos_exit.o)
 .version_info  0x0000000000045ac8     0x133f c:/hightec/toolchains/tricore/v4.9.3.0-infineon-1.0/bin/../lib/gcc/tricore/4.9.4/../../../../tricore/lib/tc161\libos.a(libos_sbrk.o)
 .version_info  0x0000000000046e07     0x132b c:/hightec/toolchains/tricore/v4.9.3.0-infineon-1.0/bin/../lib/gcc/tricore/4.9.4/../../../../tricore/lib/tc161\libos.a(libos.o)
 .version_info  0x0000000000048132     0x1343 c:/hightec/toolchains/tricore/v4.9.3.0-infineon-1.0/bin/../lib/gcc/tricore/4.9.4/../../../../tricore/lib/tc161\libos.a(libos_abort.o)
 .version_info  0x0000000000049475     0x16e0 c:/hightec/toolchains/tricore/v4.9.3.0-infineon-1.0/bin/../lib/gcc/tricore/4.9.4/../../../../tricore/lib/tc161\libm.a(lib_a-s_atan.o)
 .version_info  0x000000000004ab55     0x16e0 c:/hightec/toolchains/tricore/v4.9.3.0-infineon-1.0/bin/../lib/gcc/tricore/4.9.4/../../../../tricore/lib/tc161\libm.a(lib_a-s_fabs.o)
 .version_info  0x000000000004c235     0x16ec c:/hightec/toolchains/tricore/v4.9.3.0-infineon-1.0/bin/../lib/gcc/tricore/4.9.4/../../../../tricore/lib/tc161\libm.a(lib_a-wf_sincos.o)
 .version_info  0x000000000004d921     0x16e0 c:/hightec/toolchains/tricore/v4.9.3.0-infineon-1.0/bin/../lib/gcc/tricore/4.9.4/../../../../tricore/lib/tc161\libm.a(lib_a-sf_cos.o)
 .version_info  0x000000000004f001     0x16e0 c:/hightec/toolchains/tricore/v4.9.3.0-infineon-1.0/bin/../lib/gcc/tricore/4.9.4/../../../../tricore/lib/tc161\libm.a(lib_a-sf_sin.o)
 .version_info  0x00000000000506e1     0x16f4 c:/hightec/toolchains/tricore/v4.9.3.0-infineon-1.0/bin/../lib/gcc/tricore/4.9.4/../../../../tricore/lib/tc161\libm.a(lib_a-ef_rem_pio2.o)
 .version_info  0x0000000000051dd5     0x16e0 c:/hightec/toolchains/tricore/v4.9.3.0-infineon-1.0/bin/../lib/gcc/tricore/4.9.4/../../../../tricore/lib/tc161\libm.a(lib_a-kf_cos.o)
 .version_info  0x00000000000534b5     0x16f4 c:/hightec/toolchains/tricore/v4.9.3.0-infineon-1.0/bin/../lib/gcc/tricore/4.9.4/../../../../tricore/lib/tc161\libm.a(lib_a-kf_rem_pio2.o)
 .version_info  0x0000000000054ba9     0x16e0 c:/hightec/toolchains/tricore/v4.9.3.0-infineon-1.0/bin/../lib/gcc/tricore/4.9.4/../../../../tricore/lib/tc161\libm.a(lib_a-kf_sin.o)
 .version_info  0x0000000000056289     0x16e4 c:/hightec/toolchains/tricore/v4.9.3.0-infineon-1.0/bin/../lib/gcc/tricore/4.9.4/../../../../tricore/lib/tc161\libm.a(lib_a-sf_fabs.o)
 .version_info  0x000000000005796d     0x16e8 c:/hightec/toolchains/tricore/v4.9.3.0-infineon-1.0/bin/../lib/gcc/tricore/4.9.4/../../../../tricore/lib/tc161\libm.a(lib_a-sf_floor.o)
 .version_info  0x0000000000059055     0x1677 c:/hightec/toolchains/tricore/v4.9.3.0-infineon-1.0/bin/../lib/gcc/tricore/4.9.4/../../../../tricore/lib/tc161\libm.a(lib_a-sf_scalbn.o)
 .version_info  0x000000000005a6cc     0x167f c:/hightec/toolchains/tricore/v4.9.3.0-infineon-1.0/bin/../lib/gcc/tricore/4.9.4/../../../../tricore/lib/tc161\libm.a(lib_a-sf_copysign.o)
 .version_info  0x000000000005bd4b     0x190e c:/hightec/toolchains/tricore/v4.9.3.0-infineon-1.0/bin/../lib/gcc/tricore/4.9.4/tc161\libgcc.a(_eq_df.o)
 .version_info  0x000000000005d659     0x190e c:/hightec/toolchains/tricore/v4.9.3.0-infineon-1.0/bin/../lib/gcc/tricore/4.9.4/tc161\libgcc.a(_ne_df.o)
 .version_info  0x000000000005ef67     0x18f3 c:/hightec/toolchains/tricore/v4.9.3.0-infineon-1.0/bin/../lib/gcc/tricore/4.9.4/tc161\libgcc.a(umoddi3.o)

.boffs
 *(.boffs)
                0x0000000000000001                _. = ASSERT ((__TRICORE_DERIVATE_MEMORY_MAP__ == __TRICORE_DERIVATE_NAME__), Using wrong Memory Map. This Map is for TC27x)
                0x0000000000000001                _. = ASSERT ((_start == 0x80000020), _start is not in the right place)
                0x0000000000000001                _. = ASSERT (((__CSA0 & 0x3f) == 0x0), 1llegal CSA0 start address)
                0x0000000000000001                _. = ASSERT (((__CSA0_SIZE & 0x3f) == 0x0), Illegal CSA0 size)
                0x0000000000000001                _. = ASSERT (((__ISTACK0 & 0x7) == 0x0), ISTACK0 not doubleword aligned)
                0x0000000000000001                _. = ASSERT (((__USTACK0 & 0x7) == 0x0), USTACK0 not doubleword aligned)
                0x0000000000000001                _. = ASSERT (((__CSA1 & 0x3f) == 0x0), 1llegal CSA1 start address)
                0x0000000000000001                _. = ASSERT (((__CSA1_SIZE & 0x3f) == 0x0), Illegal CSA1 size)
                0x0000000000000001                _. = ASSERT (((__ISTACK1 & 0x7) == 0x0), ISTACK1 not doubleword aligned)
                0x0000000000000001                _. = ASSERT (((__USTACK1 & 0x7) == 0x0), USTACK1 not doubleword aligned)
                0x0000000000000001                _. = ASSERT (((__CSA2 & 0x3f) == 0x0), 1llegal CSA2 start address)
                0x0000000000000001                _. = ASSERT (((__CSA2_SIZE & 0x3f) == 0x0), Illegal CSA2 size)
                0x0000000000000001                _. = ASSERT (((__ISTACK2 & 0x7) == 0x0), ISTACK2 not doubleword aligned)
                0x0000000000000001                _. = ASSERT (((__USTACK2 & 0x7) == 0x0), USTACK2 not doubleword aligned)
                0x0000000000000001                _. = ASSERT (((__HEAP_END & 0x7) == 0x0), HEAP not doubleword aligned)
OUTPUT(erika3app.elf elf32-tricore)
